ARM GAS  C:\Users\ole\AppData\Local\Temp\ccNCmRcd.s 			page 1


   1              		.cpu cortex-m0
   2              		.fpu softvfp
   3              		.eabi_attribute 20, 1
   4              		.eabi_attribute 21, 1
   5              		.eabi_attribute 23, 3
   6              		.eabi_attribute 24, 1
   7              		.eabi_attribute 25, 1
   8              		.eabi_attribute 26, 1
   9              		.eabi_attribute 30, 6
  10              		.eabi_attribute 34, 0
  11              		.eabi_attribute 18, 4
  12              		.code	16
  13              		.file	"isr_CH2.c"
  14              		.text
  15              	.Ltext0:
  16              		.cfi_sections	.debug_frame
  17              		.section	.text.isr_CH2_Start,"ax",%progbits
  18              		.align	2
  19              		.global	isr_CH2_Start
  20              		.code	16
  21              		.thumb_func
  22              		.type	isr_CH2_Start, %function
  23              	isr_CH2_Start:
  24              	.LFB33:
  25              		.file 1 ".\\Generated_Source\\PSoC4\\isr_CH2.c"
   1:.\Generated_Source\PSoC4/isr_CH2.c **** /*******************************************************************************
   2:.\Generated_Source\PSoC4/isr_CH2.c **** * File Name: isr_CH2.c  
   3:.\Generated_Source\PSoC4/isr_CH2.c **** * Version 1.70
   4:.\Generated_Source\PSoC4/isr_CH2.c **** *
   5:.\Generated_Source\PSoC4/isr_CH2.c **** *  Description:
   6:.\Generated_Source\PSoC4/isr_CH2.c **** *   API for controlling the state of an interrupt.
   7:.\Generated_Source\PSoC4/isr_CH2.c **** *
   8:.\Generated_Source\PSoC4/isr_CH2.c **** *
   9:.\Generated_Source\PSoC4/isr_CH2.c **** *  Note:
  10:.\Generated_Source\PSoC4/isr_CH2.c **** *
  11:.\Generated_Source\PSoC4/isr_CH2.c **** ********************************************************************************
  12:.\Generated_Source\PSoC4/isr_CH2.c **** * Copyright 2008-2015, Cypress Semiconductor Corporation.  All rights reserved.
  13:.\Generated_Source\PSoC4/isr_CH2.c **** * You may use this file only in accordance with the license, terms, conditions, 
  14:.\Generated_Source\PSoC4/isr_CH2.c **** * disclaimers, and limitations in the end user license agreement accompanying 
  15:.\Generated_Source\PSoC4/isr_CH2.c **** * the software package with which this file was provided.
  16:.\Generated_Source\PSoC4/isr_CH2.c **** *******************************************************************************/
  17:.\Generated_Source\PSoC4/isr_CH2.c **** 
  18:.\Generated_Source\PSoC4/isr_CH2.c **** 
  19:.\Generated_Source\PSoC4/isr_CH2.c **** #include <cydevice_trm.h>
  20:.\Generated_Source\PSoC4/isr_CH2.c **** #include <CyLib.h>
  21:.\Generated_Source\PSoC4/isr_CH2.c **** #include <isr_CH2.h>
  22:.\Generated_Source\PSoC4/isr_CH2.c **** 
  23:.\Generated_Source\PSoC4/isr_CH2.c **** #if !defined(isr_CH2__REMOVED) /* Check for removal by optimization */
  24:.\Generated_Source\PSoC4/isr_CH2.c **** 
  25:.\Generated_Source\PSoC4/isr_CH2.c **** /*******************************************************************************
  26:.\Generated_Source\PSoC4/isr_CH2.c **** *  Place your includes, defines and code here 
  27:.\Generated_Source\PSoC4/isr_CH2.c **** ********************************************************************************/
  28:.\Generated_Source\PSoC4/isr_CH2.c **** /* `#START isr_CH2_intc` */
  29:.\Generated_Source\PSoC4/isr_CH2.c **** #include <project.h>
  30:.\Generated_Source\PSoC4/isr_CH2.c **** #include <stdio.h>
  31:.\Generated_Source\PSoC4/isr_CH2.c ****     
  32:.\Generated_Source\PSoC4/isr_CH2.c ****     
ARM GAS  C:\Users\ole\AppData\Local\Temp\ccNCmRcd.s 			page 2


  33:.\Generated_Source\PSoC4/isr_CH2.c **** extern uint16 chanel_value[2];
  34:.\Generated_Source\PSoC4/isr_CH2.c **** 
  35:.\Generated_Source\PSoC4/isr_CH2.c **** enum index {one = 0, two};
  36:.\Generated_Source\PSoC4/isr_CH2.c **** /* `#END` */
  37:.\Generated_Source\PSoC4/isr_CH2.c **** 
  38:.\Generated_Source\PSoC4/isr_CH2.c **** extern cyisraddress CyRamVectors[CYINT_IRQ_BASE + CY_NUM_INTERRUPTS];
  39:.\Generated_Source\PSoC4/isr_CH2.c **** 
  40:.\Generated_Source\PSoC4/isr_CH2.c **** /* Declared in startup, used to set unused interrupts to. */
  41:.\Generated_Source\PSoC4/isr_CH2.c **** CY_ISR_PROTO(IntDefaultHandler);
  42:.\Generated_Source\PSoC4/isr_CH2.c **** 
  43:.\Generated_Source\PSoC4/isr_CH2.c **** 
  44:.\Generated_Source\PSoC4/isr_CH2.c **** /*******************************************************************************
  45:.\Generated_Source\PSoC4/isr_CH2.c **** * Function Name: isr_CH2_Start
  46:.\Generated_Source\PSoC4/isr_CH2.c **** ********************************************************************************
  47:.\Generated_Source\PSoC4/isr_CH2.c **** *
  48:.\Generated_Source\PSoC4/isr_CH2.c **** * Summary:
  49:.\Generated_Source\PSoC4/isr_CH2.c **** *  Set up the interrupt and enable it. This function disables the interrupt, 
  50:.\Generated_Source\PSoC4/isr_CH2.c **** *  sets the default interrupt vector, sets the priority from the value in the
  51:.\Generated_Source\PSoC4/isr_CH2.c **** *  Design Wide Resources Interrupt Editor, then enables the interrupt to the 
  52:.\Generated_Source\PSoC4/isr_CH2.c **** *  interrupt controller.
  53:.\Generated_Source\PSoC4/isr_CH2.c **** *
  54:.\Generated_Source\PSoC4/isr_CH2.c **** * Parameters:  
  55:.\Generated_Source\PSoC4/isr_CH2.c **** *   None
  56:.\Generated_Source\PSoC4/isr_CH2.c **** *
  57:.\Generated_Source\PSoC4/isr_CH2.c **** * Return:
  58:.\Generated_Source\PSoC4/isr_CH2.c **** *   None
  59:.\Generated_Source\PSoC4/isr_CH2.c **** *
  60:.\Generated_Source\PSoC4/isr_CH2.c **** *******************************************************************************/
  61:.\Generated_Source\PSoC4/isr_CH2.c **** void isr_CH2_Start(void)
  62:.\Generated_Source\PSoC4/isr_CH2.c **** {
  26              		.loc 1 62 0
  27              		.cfi_startproc
  28 0000 80B5     		push	{r7, lr}
  29              		.cfi_def_cfa_offset 8
  30              		.cfi_offset 7, -8
  31              		.cfi_offset 14, -4
  32 0002 00AF     		add	r7, sp, #0
  33              		.cfi_def_cfa_register 7
  63:.\Generated_Source\PSoC4/isr_CH2.c ****     /* For all we know the interrupt is active. */
  64:.\Generated_Source\PSoC4/isr_CH2.c ****     isr_CH2_Disable();
  34              		.loc 1 64 0
  35 0004 FFF7FEFF 		bl	isr_CH2_Disable
  65:.\Generated_Source\PSoC4/isr_CH2.c **** 
  66:.\Generated_Source\PSoC4/isr_CH2.c ****     /* Set the ISR to point to the isr_CH2 Interrupt. */
  67:.\Generated_Source\PSoC4/isr_CH2.c ****     isr_CH2_SetVector(&isr_CH2_Interrupt);
  36              		.loc 1 67 0
  37 0008 054B     		ldr	r3, .L2
  38 000a 181C     		mov	r0, r3
  39 000c FFF7FEFF 		bl	isr_CH2_SetVector
  68:.\Generated_Source\PSoC4/isr_CH2.c **** 
  69:.\Generated_Source\PSoC4/isr_CH2.c ****     /* Set the priority. */
  70:.\Generated_Source\PSoC4/isr_CH2.c ****     isr_CH2_SetPriority((uint8)isr_CH2_INTC_PRIOR_NUMBER);
  40              		.loc 1 70 0
  41 0010 0320     		mov	r0, #3
  42 0012 FFF7FEFF 		bl	isr_CH2_SetPriority
  71:.\Generated_Source\PSoC4/isr_CH2.c **** 
  72:.\Generated_Source\PSoC4/isr_CH2.c ****     /* Enable it. */
ARM GAS  C:\Users\ole\AppData\Local\Temp\ccNCmRcd.s 			page 3


  73:.\Generated_Source\PSoC4/isr_CH2.c ****     isr_CH2_Enable();
  43              		.loc 1 73 0
  44 0016 FFF7FEFF 		bl	isr_CH2_Enable
  74:.\Generated_Source\PSoC4/isr_CH2.c **** }
  45              		.loc 1 74 0
  46 001a BD46     		mov	sp, r7
  47              		@ sp needed
  48 001c 80BD     		pop	{r7, pc}
  49              	.L3:
  50 001e C046     		.align	2
  51              	.L2:
  52 0020 00000000 		.word	isr_CH2_Interrupt
  53              		.cfi_endproc
  54              	.LFE33:
  55              		.size	isr_CH2_Start, .-isr_CH2_Start
  56              		.section	.text.isr_CH2_StartEx,"ax",%progbits
  57              		.align	2
  58              		.global	isr_CH2_StartEx
  59              		.code	16
  60              		.thumb_func
  61              		.type	isr_CH2_StartEx, %function
  62              	isr_CH2_StartEx:
  63              	.LFB34:
  75:.\Generated_Source\PSoC4/isr_CH2.c **** 
  76:.\Generated_Source\PSoC4/isr_CH2.c **** 
  77:.\Generated_Source\PSoC4/isr_CH2.c **** /*******************************************************************************
  78:.\Generated_Source\PSoC4/isr_CH2.c **** * Function Name: isr_CH2_StartEx
  79:.\Generated_Source\PSoC4/isr_CH2.c **** ********************************************************************************
  80:.\Generated_Source\PSoC4/isr_CH2.c **** *
  81:.\Generated_Source\PSoC4/isr_CH2.c **** * Summary:
  82:.\Generated_Source\PSoC4/isr_CH2.c **** *  Sets up the interrupt and enables it. This function disables the interrupt,
  83:.\Generated_Source\PSoC4/isr_CH2.c **** *  sets the interrupt vector based on the address passed in, sets the priority 
  84:.\Generated_Source\PSoC4/isr_CH2.c **** *  from the value in the Design Wide Resources Interrupt Editor, then enables 
  85:.\Generated_Source\PSoC4/isr_CH2.c **** *  the interrupt to the interrupt controller.
  86:.\Generated_Source\PSoC4/isr_CH2.c **** *  
  87:.\Generated_Source\PSoC4/isr_CH2.c **** *  When defining ISR functions, the CY_ISR and CY_ISR_PROTO macros should be 
  88:.\Generated_Source\PSoC4/isr_CH2.c **** *  used to provide consistent definition across compilers:
  89:.\Generated_Source\PSoC4/isr_CH2.c **** *  
  90:.\Generated_Source\PSoC4/isr_CH2.c **** *  Function definition example:
  91:.\Generated_Source\PSoC4/isr_CH2.c **** *   CY_ISR(MyISR)
  92:.\Generated_Source\PSoC4/isr_CH2.c **** *   {
  93:.\Generated_Source\PSoC4/isr_CH2.c **** *   }
  94:.\Generated_Source\PSoC4/isr_CH2.c **** *   Function prototype example:
  95:.\Generated_Source\PSoC4/isr_CH2.c **** *   CY_ISR_PROTO(MyISR);
  96:.\Generated_Source\PSoC4/isr_CH2.c **** *
  97:.\Generated_Source\PSoC4/isr_CH2.c **** * Parameters:  
  98:.\Generated_Source\PSoC4/isr_CH2.c **** *   address: Address of the ISR to set in the interrupt vector table.
  99:.\Generated_Source\PSoC4/isr_CH2.c **** *
 100:.\Generated_Source\PSoC4/isr_CH2.c **** * Return:
 101:.\Generated_Source\PSoC4/isr_CH2.c **** *   None
 102:.\Generated_Source\PSoC4/isr_CH2.c **** *
 103:.\Generated_Source\PSoC4/isr_CH2.c **** *******************************************************************************/
 104:.\Generated_Source\PSoC4/isr_CH2.c **** void isr_CH2_StartEx(cyisraddress address)
 105:.\Generated_Source\PSoC4/isr_CH2.c **** {
  64              		.loc 1 105 0
  65              		.cfi_startproc
  66 0000 80B5     		push	{r7, lr}
ARM GAS  C:\Users\ole\AppData\Local\Temp\ccNCmRcd.s 			page 4


  67              		.cfi_def_cfa_offset 8
  68              		.cfi_offset 7, -8
  69              		.cfi_offset 14, -4
  70 0002 82B0     		sub	sp, sp, #8
  71              		.cfi_def_cfa_offset 16
  72 0004 00AF     		add	r7, sp, #0
  73              		.cfi_def_cfa_register 7
  74 0006 7860     		str	r0, [r7, #4]
 106:.\Generated_Source\PSoC4/isr_CH2.c ****     /* For all we know the interrupt is active. */
 107:.\Generated_Source\PSoC4/isr_CH2.c ****     isr_CH2_Disable();
  75              		.loc 1 107 0
  76 0008 FFF7FEFF 		bl	isr_CH2_Disable
 108:.\Generated_Source\PSoC4/isr_CH2.c **** 
 109:.\Generated_Source\PSoC4/isr_CH2.c ****     /* Set the ISR to point to the isr_CH2 Interrupt. */
 110:.\Generated_Source\PSoC4/isr_CH2.c ****     isr_CH2_SetVector(address);
  77              		.loc 1 110 0
  78 000c 7B68     		ldr	r3, [r7, #4]
  79 000e 181C     		mov	r0, r3
  80 0010 FFF7FEFF 		bl	isr_CH2_SetVector
 111:.\Generated_Source\PSoC4/isr_CH2.c **** 
 112:.\Generated_Source\PSoC4/isr_CH2.c ****     /* Set the priority. */
 113:.\Generated_Source\PSoC4/isr_CH2.c ****     isr_CH2_SetPriority((uint8)isr_CH2_INTC_PRIOR_NUMBER);
  81              		.loc 1 113 0
  82 0014 0320     		mov	r0, #3
  83 0016 FFF7FEFF 		bl	isr_CH2_SetPriority
 114:.\Generated_Source\PSoC4/isr_CH2.c **** 
 115:.\Generated_Source\PSoC4/isr_CH2.c ****     /* Enable it. */
 116:.\Generated_Source\PSoC4/isr_CH2.c ****     isr_CH2_Enable();
  84              		.loc 1 116 0
  85 001a FFF7FEFF 		bl	isr_CH2_Enable
 117:.\Generated_Source\PSoC4/isr_CH2.c **** }
  86              		.loc 1 117 0
  87 001e BD46     		mov	sp, r7
  88 0020 02B0     		add	sp, sp, #8
  89              		@ sp needed
  90 0022 80BD     		pop	{r7, pc}
  91              		.cfi_endproc
  92              	.LFE34:
  93              		.size	isr_CH2_StartEx, .-isr_CH2_StartEx
  94              		.section	.text.isr_CH2_Stop,"ax",%progbits
  95              		.align	2
  96              		.global	isr_CH2_Stop
  97              		.code	16
  98              		.thumb_func
  99              		.type	isr_CH2_Stop, %function
 100              	isr_CH2_Stop:
 101              	.LFB35:
 118:.\Generated_Source\PSoC4/isr_CH2.c **** 
 119:.\Generated_Source\PSoC4/isr_CH2.c **** 
 120:.\Generated_Source\PSoC4/isr_CH2.c **** /*******************************************************************************
 121:.\Generated_Source\PSoC4/isr_CH2.c **** * Function Name: isr_CH2_Stop
 122:.\Generated_Source\PSoC4/isr_CH2.c **** ********************************************************************************
 123:.\Generated_Source\PSoC4/isr_CH2.c **** *
 124:.\Generated_Source\PSoC4/isr_CH2.c **** * Summary:
 125:.\Generated_Source\PSoC4/isr_CH2.c **** *   Disables and removes the interrupt.
 126:.\Generated_Source\PSoC4/isr_CH2.c **** *
 127:.\Generated_Source\PSoC4/isr_CH2.c **** * Parameters:  
ARM GAS  C:\Users\ole\AppData\Local\Temp\ccNCmRcd.s 			page 5


 128:.\Generated_Source\PSoC4/isr_CH2.c **** *   None
 129:.\Generated_Source\PSoC4/isr_CH2.c **** *
 130:.\Generated_Source\PSoC4/isr_CH2.c **** * Return:
 131:.\Generated_Source\PSoC4/isr_CH2.c **** *   None
 132:.\Generated_Source\PSoC4/isr_CH2.c **** *
 133:.\Generated_Source\PSoC4/isr_CH2.c **** *******************************************************************************/
 134:.\Generated_Source\PSoC4/isr_CH2.c **** void isr_CH2_Stop(void)
 135:.\Generated_Source\PSoC4/isr_CH2.c **** {
 102              		.loc 1 135 0
 103              		.cfi_startproc
 104 0000 80B5     		push	{r7, lr}
 105              		.cfi_def_cfa_offset 8
 106              		.cfi_offset 7, -8
 107              		.cfi_offset 14, -4
 108 0002 00AF     		add	r7, sp, #0
 109              		.cfi_def_cfa_register 7
 136:.\Generated_Source\PSoC4/isr_CH2.c ****     /* Disable this interrupt. */
 137:.\Generated_Source\PSoC4/isr_CH2.c ****     isr_CH2_Disable();
 110              		.loc 1 137 0
 111 0004 FFF7FEFF 		bl	isr_CH2_Disable
 138:.\Generated_Source\PSoC4/isr_CH2.c **** 
 139:.\Generated_Source\PSoC4/isr_CH2.c ****     /* Set the ISR to point to the passive one. */
 140:.\Generated_Source\PSoC4/isr_CH2.c ****     isr_CH2_SetVector(&IntDefaultHandler);
 112              		.loc 1 140 0
 113 0008 024B     		ldr	r3, .L6
 114 000a 181C     		mov	r0, r3
 115 000c FFF7FEFF 		bl	isr_CH2_SetVector
 141:.\Generated_Source\PSoC4/isr_CH2.c **** }
 116              		.loc 1 141 0
 117 0010 BD46     		mov	sp, r7
 118              		@ sp needed
 119 0012 80BD     		pop	{r7, pc}
 120              	.L7:
 121              		.align	2
 122              	.L6:
 123 0014 00000000 		.word	IntDefaultHandler
 124              		.cfi_endproc
 125              	.LFE35:
 126              		.size	isr_CH2_Stop, .-isr_CH2_Stop
 127              		.section	.text.isr_CH2_Interrupt,"ax",%progbits
 128              		.align	2
 129              		.global	isr_CH2_Interrupt
 130              		.code	16
 131              		.thumb_func
 132              		.type	isr_CH2_Interrupt, %function
 133              	isr_CH2_Interrupt:
 134              	.LFB36:
 142:.\Generated_Source\PSoC4/isr_CH2.c **** 
 143:.\Generated_Source\PSoC4/isr_CH2.c **** 
 144:.\Generated_Source\PSoC4/isr_CH2.c **** /*******************************************************************************
 145:.\Generated_Source\PSoC4/isr_CH2.c **** * Function Name: isr_CH2_Interrupt
 146:.\Generated_Source\PSoC4/isr_CH2.c **** ********************************************************************************
 147:.\Generated_Source\PSoC4/isr_CH2.c **** *
 148:.\Generated_Source\PSoC4/isr_CH2.c **** * Summary:
 149:.\Generated_Source\PSoC4/isr_CH2.c **** *   The default Interrupt Service Routine for isr_CH2.
 150:.\Generated_Source\PSoC4/isr_CH2.c **** *
 151:.\Generated_Source\PSoC4/isr_CH2.c **** *   Add custom code between the START and END comments to keep the next version
ARM GAS  C:\Users\ole\AppData\Local\Temp\ccNCmRcd.s 			page 6


 152:.\Generated_Source\PSoC4/isr_CH2.c **** *   of this file from over-writing your code.
 153:.\Generated_Source\PSoC4/isr_CH2.c **** *
 154:.\Generated_Source\PSoC4/isr_CH2.c **** *   Note You may use either the default ISR by using this API, or you may define
 155:.\Generated_Source\PSoC4/isr_CH2.c **** *   your own separate ISR through ISR_StartEx().
 156:.\Generated_Source\PSoC4/isr_CH2.c **** *
 157:.\Generated_Source\PSoC4/isr_CH2.c **** * Parameters:  
 158:.\Generated_Source\PSoC4/isr_CH2.c **** *   None
 159:.\Generated_Source\PSoC4/isr_CH2.c **** *
 160:.\Generated_Source\PSoC4/isr_CH2.c **** * Return:
 161:.\Generated_Source\PSoC4/isr_CH2.c **** *   None
 162:.\Generated_Source\PSoC4/isr_CH2.c **** *
 163:.\Generated_Source\PSoC4/isr_CH2.c **** *******************************************************************************/
 164:.\Generated_Source\PSoC4/isr_CH2.c **** CY_ISR(isr_CH2_Interrupt)
 165:.\Generated_Source\PSoC4/isr_CH2.c **** {
 135              		.loc 1 165 0
 136              		.cfi_startproc
 137 0000 80B5     		push	{r7, lr}
 138              		.cfi_def_cfa_offset 8
 139              		.cfi_offset 7, -8
 140              		.cfi_offset 14, -4
 141 0002 82B0     		sub	sp, sp, #8
 142              		.cfi_def_cfa_offset 16
 143 0004 00AF     		add	r7, sp, #0
 144              		.cfi_def_cfa_register 7
 166:.\Generated_Source\PSoC4/isr_CH2.c ****     /*  Place your Interrupt code here. */
 167:.\Generated_Source\PSoC4/isr_CH2.c ****     /* `#START isr_CH2_Interrupt` */
 168:.\Generated_Source\PSoC4/isr_CH2.c ****     
 169:.\Generated_Source\PSoC4/isr_CH2.c ****     int time;
 170:.\Generated_Source\PSoC4/isr_CH2.c ****     //char8 buffer[15];
 171:.\Generated_Source\PSoC4/isr_CH2.c ****     
 172:.\Generated_Source\PSoC4/isr_CH2.c ****     isr_CH2_ClearPending();
 145              		.loc 1 172 0
 146 0006 FFF7FEFF 		bl	isr_CH2_ClearPending
 173:.\Generated_Source\PSoC4/isr_CH2.c ****     Timer_CH2_ClearInterrupt(Timer_CH2_INTR_MASK_CC_MATCH);
 147              		.loc 1 173 0
 148 000a 0220     		mov	r0, #2
 149 000c FFF7FEFF 		bl	Timer_CH2_ClearInterrupt
 174:.\Generated_Source\PSoC4/isr_CH2.c ****     time = (int) Timer_CH2_ReadCounter();
 150              		.loc 1 174 0
 151 0010 FFF7FEFF 		bl	Timer_CH2_ReadCounter
 152 0014 031C     		mov	r3, r0
 153 0016 7B60     		str	r3, [r7, #4]
 175:.\Generated_Source\PSoC4/isr_CH2.c ****     Timer_CH2_WriteCounter(0);
 154              		.loc 1 175 0
 155 0018 0020     		mov	r0, #0
 156 001a FFF7FEFF 		bl	Timer_CH2_WriteCounter
 176:.\Generated_Source\PSoC4/isr_CH2.c ****     if  (time < 2200)
 157              		.loc 1 176 0
 158 001e 7A68     		ldr	r2, [r7, #4]
 159 0020 044B     		ldr	r3, .L10
 160 0022 9A42     		cmp	r2, r3
 161 0024 03DC     		bgt	.L8
 177:.\Generated_Source\PSoC4/isr_CH2.c ****     {
 178:.\Generated_Source\PSoC4/isr_CH2.c ****         chanel_value[two] = time;
 162              		.loc 1 178 0
 163 0026 7B68     		ldr	r3, [r7, #4]
 164 0028 9AB2     		uxth	r2, r3
ARM GAS  C:\Users\ole\AppData\Local\Temp\ccNCmRcd.s 			page 7


 165 002a 034B     		ldr	r3, .L10+4
 166 002c 5A80     		strh	r2, [r3, #2]
 167              	.L8:
 179:.\Generated_Source\PSoC4/isr_CH2.c ****         //sprintf(buffer,"CH2 %d ", time);
 180:.\Generated_Source\PSoC4/isr_CH2.c ****         //UART_1_UartPutString(buffer);
 181:.\Generated_Source\PSoC4/isr_CH2.c ****     }
 182:.\Generated_Source\PSoC4/isr_CH2.c ****     
 183:.\Generated_Source\PSoC4/isr_CH2.c ****     /* `#END` */
 184:.\Generated_Source\PSoC4/isr_CH2.c **** }
 168              		.loc 1 184 0
 169 002e BD46     		mov	sp, r7
 170 0030 02B0     		add	sp, sp, #8
 171              		@ sp needed
 172 0032 80BD     		pop	{r7, pc}
 173              	.L11:
 174              		.align	2
 175              	.L10:
 176 0034 97080000 		.word	2199
 177 0038 00000000 		.word	chanel_value
 178              		.cfi_endproc
 179              	.LFE36:
 180              		.size	isr_CH2_Interrupt, .-isr_CH2_Interrupt
 181              		.section	.text.isr_CH2_SetVector,"ax",%progbits
 182              		.align	2
 183              		.global	isr_CH2_SetVector
 184              		.code	16
 185              		.thumb_func
 186              		.type	isr_CH2_SetVector, %function
 187              	isr_CH2_SetVector:
 188              	.LFB37:
 185:.\Generated_Source\PSoC4/isr_CH2.c **** 
 186:.\Generated_Source\PSoC4/isr_CH2.c **** 
 187:.\Generated_Source\PSoC4/isr_CH2.c **** /*******************************************************************************
 188:.\Generated_Source\PSoC4/isr_CH2.c **** * Function Name: isr_CH2_SetVector
 189:.\Generated_Source\PSoC4/isr_CH2.c **** ********************************************************************************
 190:.\Generated_Source\PSoC4/isr_CH2.c **** *
 191:.\Generated_Source\PSoC4/isr_CH2.c **** * Summary:
 192:.\Generated_Source\PSoC4/isr_CH2.c **** *   Change the ISR vector for the Interrupt. Note calling isr_CH2_Start
 193:.\Generated_Source\PSoC4/isr_CH2.c **** *   will override any effect this method would have had. To set the vector 
 194:.\Generated_Source\PSoC4/isr_CH2.c **** *   before the component has been started use isr_CH2_StartEx instead.
 195:.\Generated_Source\PSoC4/isr_CH2.c **** * 
 196:.\Generated_Source\PSoC4/isr_CH2.c **** *   When defining ISR functions, the CY_ISR and CY_ISR_PROTO macros should be 
 197:.\Generated_Source\PSoC4/isr_CH2.c **** *   used to provide consistent definition across compilers:
 198:.\Generated_Source\PSoC4/isr_CH2.c **** *
 199:.\Generated_Source\PSoC4/isr_CH2.c **** *   Function definition example:
 200:.\Generated_Source\PSoC4/isr_CH2.c **** *   CY_ISR(MyISR)
 201:.\Generated_Source\PSoC4/isr_CH2.c **** *   {
 202:.\Generated_Source\PSoC4/isr_CH2.c **** *   }
 203:.\Generated_Source\PSoC4/isr_CH2.c **** *
 204:.\Generated_Source\PSoC4/isr_CH2.c **** *   Function prototype example:
 205:.\Generated_Source\PSoC4/isr_CH2.c **** *     CY_ISR_PROTO(MyISR);
 206:.\Generated_Source\PSoC4/isr_CH2.c **** *
 207:.\Generated_Source\PSoC4/isr_CH2.c **** * Parameters:
 208:.\Generated_Source\PSoC4/isr_CH2.c **** *   address: Address of the ISR to set in the interrupt vector table.
 209:.\Generated_Source\PSoC4/isr_CH2.c **** *
 210:.\Generated_Source\PSoC4/isr_CH2.c **** * Return:
 211:.\Generated_Source\PSoC4/isr_CH2.c **** *   None
ARM GAS  C:\Users\ole\AppData\Local\Temp\ccNCmRcd.s 			page 8


 212:.\Generated_Source\PSoC4/isr_CH2.c **** *
 213:.\Generated_Source\PSoC4/isr_CH2.c **** *******************************************************************************/
 214:.\Generated_Source\PSoC4/isr_CH2.c **** void isr_CH2_SetVector(cyisraddress address)
 215:.\Generated_Source\PSoC4/isr_CH2.c **** {
 189              		.loc 1 215 0
 190              		.cfi_startproc
 191 0000 80B5     		push	{r7, lr}
 192              		.cfi_def_cfa_offset 8
 193              		.cfi_offset 7, -8
 194              		.cfi_offset 14, -4
 195 0002 82B0     		sub	sp, sp, #8
 196              		.cfi_def_cfa_offset 16
 197 0004 00AF     		add	r7, sp, #0
 198              		.cfi_def_cfa_register 7
 199 0006 7860     		str	r0, [r7, #4]
 216:.\Generated_Source\PSoC4/isr_CH2.c ****     CyRamVectors[CYINT_IRQ_BASE + isr_CH2__INTC_NUMBER] = address;
 200              		.loc 1 216 0
 201 0008 034A     		ldr	r2, .L13
 202 000a 8423     		mov	r3, #132
 203 000c 7968     		ldr	r1, [r7, #4]
 204 000e D150     		str	r1, [r2, r3]
 217:.\Generated_Source\PSoC4/isr_CH2.c **** }
 205              		.loc 1 217 0
 206 0010 BD46     		mov	sp, r7
 207 0012 02B0     		add	sp, sp, #8
 208              		@ sp needed
 209 0014 80BD     		pop	{r7, pc}
 210              	.L14:
 211 0016 C046     		.align	2
 212              	.L13:
 213 0018 00000000 		.word	CyRamVectors
 214              		.cfi_endproc
 215              	.LFE37:
 216              		.size	isr_CH2_SetVector, .-isr_CH2_SetVector
 217              		.section	.text.isr_CH2_GetVector,"ax",%progbits
 218              		.align	2
 219              		.global	isr_CH2_GetVector
 220              		.code	16
 221              		.thumb_func
 222              		.type	isr_CH2_GetVector, %function
 223              	isr_CH2_GetVector:
 224              	.LFB38:
 218:.\Generated_Source\PSoC4/isr_CH2.c **** 
 219:.\Generated_Source\PSoC4/isr_CH2.c **** 
 220:.\Generated_Source\PSoC4/isr_CH2.c **** /*******************************************************************************
 221:.\Generated_Source\PSoC4/isr_CH2.c **** * Function Name: isr_CH2_GetVector
 222:.\Generated_Source\PSoC4/isr_CH2.c **** ********************************************************************************
 223:.\Generated_Source\PSoC4/isr_CH2.c **** *
 224:.\Generated_Source\PSoC4/isr_CH2.c **** * Summary:
 225:.\Generated_Source\PSoC4/isr_CH2.c **** *   Gets the "address" of the current ISR vector for the Interrupt.
 226:.\Generated_Source\PSoC4/isr_CH2.c **** *
 227:.\Generated_Source\PSoC4/isr_CH2.c **** * Parameters:
 228:.\Generated_Source\PSoC4/isr_CH2.c **** *   None
 229:.\Generated_Source\PSoC4/isr_CH2.c **** *
 230:.\Generated_Source\PSoC4/isr_CH2.c **** * Return:
 231:.\Generated_Source\PSoC4/isr_CH2.c **** *   Address of the ISR in the interrupt vector table.
 232:.\Generated_Source\PSoC4/isr_CH2.c **** *
ARM GAS  C:\Users\ole\AppData\Local\Temp\ccNCmRcd.s 			page 9


 233:.\Generated_Source\PSoC4/isr_CH2.c **** *******************************************************************************/
 234:.\Generated_Source\PSoC4/isr_CH2.c **** cyisraddress isr_CH2_GetVector(void)
 235:.\Generated_Source\PSoC4/isr_CH2.c **** {
 225              		.loc 1 235 0
 226              		.cfi_startproc
 227 0000 80B5     		push	{r7, lr}
 228              		.cfi_def_cfa_offset 8
 229              		.cfi_offset 7, -8
 230              		.cfi_offset 14, -4
 231 0002 00AF     		add	r7, sp, #0
 232              		.cfi_def_cfa_register 7
 236:.\Generated_Source\PSoC4/isr_CH2.c ****     return CyRamVectors[CYINT_IRQ_BASE + isr_CH2__INTC_NUMBER];
 233              		.loc 1 236 0
 234 0004 024A     		ldr	r2, .L17
 235 0006 8423     		mov	r3, #132
 236 0008 D358     		ldr	r3, [r2, r3]
 237:.\Generated_Source\PSoC4/isr_CH2.c **** }
 237              		.loc 1 237 0
 238 000a 181C     		mov	r0, r3
 239 000c BD46     		mov	sp, r7
 240              		@ sp needed
 241 000e 80BD     		pop	{r7, pc}
 242              	.L18:
 243              		.align	2
 244              	.L17:
 245 0010 00000000 		.word	CyRamVectors
 246              		.cfi_endproc
 247              	.LFE38:
 248              		.size	isr_CH2_GetVector, .-isr_CH2_GetVector
 249              		.section	.text.isr_CH2_SetPriority,"ax",%progbits
 250              		.align	2
 251              		.global	isr_CH2_SetPriority
 252              		.code	16
 253              		.thumb_func
 254              		.type	isr_CH2_SetPriority, %function
 255              	isr_CH2_SetPriority:
 256              	.LFB39:
 238:.\Generated_Source\PSoC4/isr_CH2.c **** 
 239:.\Generated_Source\PSoC4/isr_CH2.c **** 
 240:.\Generated_Source\PSoC4/isr_CH2.c **** /*******************************************************************************
 241:.\Generated_Source\PSoC4/isr_CH2.c **** * Function Name: isr_CH2_SetPriority
 242:.\Generated_Source\PSoC4/isr_CH2.c **** ********************************************************************************
 243:.\Generated_Source\PSoC4/isr_CH2.c **** *
 244:.\Generated_Source\PSoC4/isr_CH2.c **** * Summary:
 245:.\Generated_Source\PSoC4/isr_CH2.c **** *   Sets the Priority of the Interrupt. 
 246:.\Generated_Source\PSoC4/isr_CH2.c **** *
 247:.\Generated_Source\PSoC4/isr_CH2.c **** *   Note calling isr_CH2_Start or isr_CH2_StartEx will 
 248:.\Generated_Source\PSoC4/isr_CH2.c **** *   override any effect this API would have had. This API should only be called
 249:.\Generated_Source\PSoC4/isr_CH2.c **** *   after isr_CH2_Start or isr_CH2_StartEx has been called. 
 250:.\Generated_Source\PSoC4/isr_CH2.c **** *   To set the initial priority for the component, use the Design-Wide Resources
 251:.\Generated_Source\PSoC4/isr_CH2.c **** *   Interrupt Editor.
 252:.\Generated_Source\PSoC4/isr_CH2.c **** *
 253:.\Generated_Source\PSoC4/isr_CH2.c **** *   Note This API has no effect on Non-maskable interrupt NMI).
 254:.\Generated_Source\PSoC4/isr_CH2.c **** *
 255:.\Generated_Source\PSoC4/isr_CH2.c **** * Parameters:
 256:.\Generated_Source\PSoC4/isr_CH2.c **** *   priority: Priority of the interrupt, 0 being the highest priority
 257:.\Generated_Source\PSoC4/isr_CH2.c **** *             PSoC 3 and PSoC 5LP: Priority is from 0 to 7.
ARM GAS  C:\Users\ole\AppData\Local\Temp\ccNCmRcd.s 			page 10


 258:.\Generated_Source\PSoC4/isr_CH2.c **** *             PSoC 4: Priority is from 0 to 3.
 259:.\Generated_Source\PSoC4/isr_CH2.c **** *
 260:.\Generated_Source\PSoC4/isr_CH2.c **** * Return:
 261:.\Generated_Source\PSoC4/isr_CH2.c **** *   None
 262:.\Generated_Source\PSoC4/isr_CH2.c **** *
 263:.\Generated_Source\PSoC4/isr_CH2.c **** *******************************************************************************/
 264:.\Generated_Source\PSoC4/isr_CH2.c **** void isr_CH2_SetPriority(uint8 priority)
 265:.\Generated_Source\PSoC4/isr_CH2.c **** {
 257              		.loc 1 265 0
 258              		.cfi_startproc
 259 0000 90B5     		push	{r4, r7, lr}
 260              		.cfi_def_cfa_offset 12
 261              		.cfi_offset 4, -12
 262              		.cfi_offset 7, -8
 263              		.cfi_offset 14, -4
 264 0002 85B0     		sub	sp, sp, #20
 265              		.cfi_def_cfa_offset 32
 266 0004 00AF     		add	r7, sp, #0
 267              		.cfi_def_cfa_register 7
 268 0006 021C     		mov	r2, r0
 269 0008 FB1D     		add	r3, r7, #7
 270 000a 1A70     		strb	r2, [r3]
 266:.\Generated_Source\PSoC4/isr_CH2.c **** 	uint8 interruptState;
 267:.\Generated_Source\PSoC4/isr_CH2.c ****     uint32 priorityOffset = ((isr_CH2__INTC_NUMBER % 4u) * 8u) + 6u;
 271              		.loc 1 267 0
 272 000c 0E23     		mov	r3, #14
 273 000e FB60     		str	r3, [r7, #12]
 268:.\Generated_Source\PSoC4/isr_CH2.c ****     
 269:.\Generated_Source\PSoC4/isr_CH2.c **** 	interruptState = CyEnterCriticalSection();
 274              		.loc 1 269 0
 275 0010 3C1C     		mov	r4, r7
 276 0012 0B34     		add	r4, r4, #11
 277 0014 FFF7FEFF 		bl	CyEnterCriticalSection
 278 0018 031C     		mov	r3, r0
 279 001a 2370     		strb	r3, [r4]
 270:.\Generated_Source\PSoC4/isr_CH2.c ****     *isr_CH2_INTC_PRIOR = (*isr_CH2_INTC_PRIOR & (uint32)(~isr_CH2__INTC_PRIOR_MASK)) |
 280              		.loc 1 270 0
 281 001c 0A4B     		ldr	r3, .L20
 282 001e 0A4A     		ldr	r2, .L20
 283 0020 1168     		ldr	r1, [r2]
 284 0022 0A4A     		ldr	r2, .L20+4
 285 0024 1140     		and	r1, r2
 271:.\Generated_Source\PSoC4/isr_CH2.c ****                                     ((uint32)priority << priorityOffset);
 286              		.loc 1 271 0
 287 0026 FA1D     		add	r2, r7, #7
 288 0028 1078     		ldrb	r0, [r2]
 289 002a FA68     		ldr	r2, [r7, #12]
 290 002c 041C     		mov	r4, r0
 291 002e 9440     		lsl	r4, r4, r2
 292 0030 221C     		mov	r2, r4
 270:.\Generated_Source\PSoC4/isr_CH2.c ****     *isr_CH2_INTC_PRIOR = (*isr_CH2_INTC_PRIOR & (uint32)(~isr_CH2__INTC_PRIOR_MASK)) |
 293              		.loc 1 270 0
 294 0032 0A43     		orr	r2, r1
 295 0034 1A60     		str	r2, [r3]
 272:.\Generated_Source\PSoC4/isr_CH2.c **** 	CyExitCriticalSection(interruptState);
 296              		.loc 1 272 0
 297 0036 3B1C     		mov	r3, r7
ARM GAS  C:\Users\ole\AppData\Local\Temp\ccNCmRcd.s 			page 11


 298 0038 0B33     		add	r3, r3, #11
 299 003a 1B78     		ldrb	r3, [r3]
 300 003c 181C     		mov	r0, r3
 301 003e FFF7FEFF 		bl	CyExitCriticalSection
 273:.\Generated_Source\PSoC4/isr_CH2.c **** }
 302              		.loc 1 273 0
 303 0042 BD46     		mov	sp, r7
 304 0044 05B0     		add	sp, sp, #20
 305              		@ sp needed
 306 0046 90BD     		pop	{r4, r7, pc}
 307              	.L21:
 308              		.align	2
 309              	.L20:
 310 0048 10E400E0 		.word	-536812528
 311 004c FF3FFFFF 		.word	-49153
 312              		.cfi_endproc
 313              	.LFE39:
 314              		.size	isr_CH2_SetPriority, .-isr_CH2_SetPriority
 315              		.section	.text.isr_CH2_GetPriority,"ax",%progbits
 316              		.align	2
 317              		.global	isr_CH2_GetPriority
 318              		.code	16
 319              		.thumb_func
 320              		.type	isr_CH2_GetPriority, %function
 321              	isr_CH2_GetPriority:
 322              	.LFB40:
 274:.\Generated_Source\PSoC4/isr_CH2.c **** 
 275:.\Generated_Source\PSoC4/isr_CH2.c **** 
 276:.\Generated_Source\PSoC4/isr_CH2.c **** /*******************************************************************************
 277:.\Generated_Source\PSoC4/isr_CH2.c **** * Function Name: isr_CH2_GetPriority
 278:.\Generated_Source\PSoC4/isr_CH2.c **** ********************************************************************************
 279:.\Generated_Source\PSoC4/isr_CH2.c **** *
 280:.\Generated_Source\PSoC4/isr_CH2.c **** * Summary:
 281:.\Generated_Source\PSoC4/isr_CH2.c **** *   Gets the Priority of the Interrupt.
 282:.\Generated_Source\PSoC4/isr_CH2.c **** *
 283:.\Generated_Source\PSoC4/isr_CH2.c **** * Parameters:
 284:.\Generated_Source\PSoC4/isr_CH2.c **** *   None
 285:.\Generated_Source\PSoC4/isr_CH2.c **** *
 286:.\Generated_Source\PSoC4/isr_CH2.c **** * Return:
 287:.\Generated_Source\PSoC4/isr_CH2.c **** *   Priority of the interrupt, 0 being the highest priority
 288:.\Generated_Source\PSoC4/isr_CH2.c **** *    PSoC 3 and PSoC 5LP: Priority is from 0 to 7.
 289:.\Generated_Source\PSoC4/isr_CH2.c **** *    PSoC 4: Priority is from 0 to 3.
 290:.\Generated_Source\PSoC4/isr_CH2.c **** *
 291:.\Generated_Source\PSoC4/isr_CH2.c **** *******************************************************************************/
 292:.\Generated_Source\PSoC4/isr_CH2.c **** uint8 isr_CH2_GetPriority(void)
 293:.\Generated_Source\PSoC4/isr_CH2.c **** {
 323              		.loc 1 293 0
 324              		.cfi_startproc
 325 0000 80B5     		push	{r7, lr}
 326              		.cfi_def_cfa_offset 8
 327              		.cfi_offset 7, -8
 328              		.cfi_offset 14, -4
 329 0002 82B0     		sub	sp, sp, #8
 330              		.cfi_def_cfa_offset 16
 331 0004 00AF     		add	r7, sp, #0
 332              		.cfi_def_cfa_register 7
 294:.\Generated_Source\PSoC4/isr_CH2.c ****     uint32 priority;
ARM GAS  C:\Users\ole\AppData\Local\Temp\ccNCmRcd.s 			page 12


 295:.\Generated_Source\PSoC4/isr_CH2.c **** 	uint32 priorityOffset = ((isr_CH2__INTC_NUMBER % 4u) * 8u) + 6u;
 333              		.loc 1 295 0
 334 0006 0E23     		mov	r3, #14
 335 0008 7B60     		str	r3, [r7, #4]
 296:.\Generated_Source\PSoC4/isr_CH2.c **** 
 297:.\Generated_Source\PSoC4/isr_CH2.c ****     priority = (*isr_CH2_INTC_PRIOR & isr_CH2__INTC_PRIOR_MASK) >> priorityOffset;
 336              		.loc 1 297 0
 337 000a 084B     		ldr	r3, .L24
 338 000c 1A68     		ldr	r2, [r3]
 339 000e C023     		mov	r3, #192
 340 0010 1B02     		lsl	r3, r3, #8
 341 0012 1A40     		and	r2, r3
 342 0014 7B68     		ldr	r3, [r7, #4]
 343 0016 111C     		mov	r1, r2
 344 0018 D940     		lsr	r1, r1, r3
 345 001a 0B1C     		mov	r3, r1
 346 001c 3B60     		str	r3, [r7]
 298:.\Generated_Source\PSoC4/isr_CH2.c **** 
 299:.\Generated_Source\PSoC4/isr_CH2.c ****     return (uint8)priority;
 347              		.loc 1 299 0
 348 001e 3B68     		ldr	r3, [r7]
 349 0020 DBB2     		uxtb	r3, r3
 300:.\Generated_Source\PSoC4/isr_CH2.c **** }
 350              		.loc 1 300 0
 351 0022 181C     		mov	r0, r3
 352 0024 BD46     		mov	sp, r7
 353 0026 02B0     		add	sp, sp, #8
 354              		@ sp needed
 355 0028 80BD     		pop	{r7, pc}
 356              	.L25:
 357 002a C046     		.align	2
 358              	.L24:
 359 002c 10E400E0 		.word	-536812528
 360              		.cfi_endproc
 361              	.LFE40:
 362              		.size	isr_CH2_GetPriority, .-isr_CH2_GetPriority
 363              		.section	.text.isr_CH2_Enable,"ax",%progbits
 364              		.align	2
 365              		.global	isr_CH2_Enable
 366              		.code	16
 367              		.thumb_func
 368              		.type	isr_CH2_Enable, %function
 369              	isr_CH2_Enable:
 370              	.LFB41:
 301:.\Generated_Source\PSoC4/isr_CH2.c **** 
 302:.\Generated_Source\PSoC4/isr_CH2.c **** 
 303:.\Generated_Source\PSoC4/isr_CH2.c **** /*******************************************************************************
 304:.\Generated_Source\PSoC4/isr_CH2.c **** * Function Name: isr_CH2_Enable
 305:.\Generated_Source\PSoC4/isr_CH2.c **** ********************************************************************************
 306:.\Generated_Source\PSoC4/isr_CH2.c **** *
 307:.\Generated_Source\PSoC4/isr_CH2.c **** * Summary:
 308:.\Generated_Source\PSoC4/isr_CH2.c **** *   Enables the interrupt to the interrupt controller. Do not call this function
 309:.\Generated_Source\PSoC4/isr_CH2.c **** *   unless ISR_Start() has been called or the functionality of the ISR_Start() 
 310:.\Generated_Source\PSoC4/isr_CH2.c **** *   function, which sets the vector and the priority, has been called.
 311:.\Generated_Source\PSoC4/isr_CH2.c **** *
 312:.\Generated_Source\PSoC4/isr_CH2.c **** * Parameters:
 313:.\Generated_Source\PSoC4/isr_CH2.c **** *   None
ARM GAS  C:\Users\ole\AppData\Local\Temp\ccNCmRcd.s 			page 13


 314:.\Generated_Source\PSoC4/isr_CH2.c **** *
 315:.\Generated_Source\PSoC4/isr_CH2.c **** * Return:
 316:.\Generated_Source\PSoC4/isr_CH2.c **** *   None
 317:.\Generated_Source\PSoC4/isr_CH2.c **** *
 318:.\Generated_Source\PSoC4/isr_CH2.c **** *******************************************************************************/
 319:.\Generated_Source\PSoC4/isr_CH2.c **** void isr_CH2_Enable(void)
 320:.\Generated_Source\PSoC4/isr_CH2.c **** {
 371              		.loc 1 320 0
 372              		.cfi_startproc
 373 0000 80B5     		push	{r7, lr}
 374              		.cfi_def_cfa_offset 8
 375              		.cfi_offset 7, -8
 376              		.cfi_offset 14, -4
 377 0002 00AF     		add	r7, sp, #0
 378              		.cfi_def_cfa_register 7
 321:.\Generated_Source\PSoC4/isr_CH2.c ****     /* Enable the general interrupt. */
 322:.\Generated_Source\PSoC4/isr_CH2.c ****     *isr_CH2_INTC_SET_EN = isr_CH2__INTC_MASK;
 379              		.loc 1 322 0
 380 0004 024B     		ldr	r3, .L27
 381 0006 8022     		mov	r2, #128
 382 0008 9202     		lsl	r2, r2, #10
 383 000a 1A60     		str	r2, [r3]
 323:.\Generated_Source\PSoC4/isr_CH2.c **** }
 384              		.loc 1 323 0
 385 000c BD46     		mov	sp, r7
 386              		@ sp needed
 387 000e 80BD     		pop	{r7, pc}
 388              	.L28:
 389              		.align	2
 390              	.L27:
 391 0010 00E100E0 		.word	-536813312
 392              		.cfi_endproc
 393              	.LFE41:
 394              		.size	isr_CH2_Enable, .-isr_CH2_Enable
 395              		.section	.text.isr_CH2_GetState,"ax",%progbits
 396              		.align	2
 397              		.global	isr_CH2_GetState
 398              		.code	16
 399              		.thumb_func
 400              		.type	isr_CH2_GetState, %function
 401              	isr_CH2_GetState:
 402              	.LFB42:
 324:.\Generated_Source\PSoC4/isr_CH2.c **** 
 325:.\Generated_Source\PSoC4/isr_CH2.c **** 
 326:.\Generated_Source\PSoC4/isr_CH2.c **** /*******************************************************************************
 327:.\Generated_Source\PSoC4/isr_CH2.c **** * Function Name: isr_CH2_GetState
 328:.\Generated_Source\PSoC4/isr_CH2.c **** ********************************************************************************
 329:.\Generated_Source\PSoC4/isr_CH2.c **** *
 330:.\Generated_Source\PSoC4/isr_CH2.c **** * Summary:
 331:.\Generated_Source\PSoC4/isr_CH2.c **** *   Gets the state (enabled, disabled) of the Interrupt.
 332:.\Generated_Source\PSoC4/isr_CH2.c **** *
 333:.\Generated_Source\PSoC4/isr_CH2.c **** * Parameters:
 334:.\Generated_Source\PSoC4/isr_CH2.c **** *   None
 335:.\Generated_Source\PSoC4/isr_CH2.c **** *
 336:.\Generated_Source\PSoC4/isr_CH2.c **** * Return:
 337:.\Generated_Source\PSoC4/isr_CH2.c **** *   1 if enabled, 0 if disabled.
 338:.\Generated_Source\PSoC4/isr_CH2.c **** *
ARM GAS  C:\Users\ole\AppData\Local\Temp\ccNCmRcd.s 			page 14


 339:.\Generated_Source\PSoC4/isr_CH2.c **** *******************************************************************************/
 340:.\Generated_Source\PSoC4/isr_CH2.c **** uint8 isr_CH2_GetState(void)
 341:.\Generated_Source\PSoC4/isr_CH2.c **** {
 403              		.loc 1 341 0
 404              		.cfi_startproc
 405 0000 80B5     		push	{r7, lr}
 406              		.cfi_def_cfa_offset 8
 407              		.cfi_offset 7, -8
 408              		.cfi_offset 14, -4
 409 0002 00AF     		add	r7, sp, #0
 410              		.cfi_def_cfa_register 7
 342:.\Generated_Source\PSoC4/isr_CH2.c ****     /* Get the state of the general interrupt. */
 343:.\Generated_Source\PSoC4/isr_CH2.c ****     return ((*isr_CH2_INTC_SET_EN & (uint32)isr_CH2__INTC_MASK) != 0u) ? 1u:0u;
 411              		.loc 1 343 0
 412 0004 054B     		ldr	r3, .L33
 413 0006 1A68     		ldr	r2, [r3]
 414 0008 8023     		mov	r3, #128
 415 000a 9B02     		lsl	r3, r3, #10
 416 000c 1340     		and	r3, r2
 417 000e 01D0     		beq	.L30
 418              		.loc 1 343 0 is_stmt 0 discriminator 1
 419 0010 0123     		mov	r3, #1
 420 0012 00E0     		b	.L31
 421              	.L30:
 422              		.loc 1 343 0 discriminator 2
 423 0014 0023     		mov	r3, #0
 424              	.L31:
 344:.\Generated_Source\PSoC4/isr_CH2.c **** }
 425              		.loc 1 344 0 is_stmt 1 discriminator 3
 426 0016 181C     		mov	r0, r3
 427 0018 BD46     		mov	sp, r7
 428              		@ sp needed
 429 001a 80BD     		pop	{r7, pc}
 430              	.L34:
 431              		.align	2
 432              	.L33:
 433 001c 00E100E0 		.word	-536813312
 434              		.cfi_endproc
 435              	.LFE42:
 436              		.size	isr_CH2_GetState, .-isr_CH2_GetState
 437              		.section	.text.isr_CH2_Disable,"ax",%progbits
 438              		.align	2
 439              		.global	isr_CH2_Disable
 440              		.code	16
 441              		.thumb_func
 442              		.type	isr_CH2_Disable, %function
 443              	isr_CH2_Disable:
 444              	.LFB43:
 345:.\Generated_Source\PSoC4/isr_CH2.c **** 
 346:.\Generated_Source\PSoC4/isr_CH2.c **** 
 347:.\Generated_Source\PSoC4/isr_CH2.c **** /*******************************************************************************
 348:.\Generated_Source\PSoC4/isr_CH2.c **** * Function Name: isr_CH2_Disable
 349:.\Generated_Source\PSoC4/isr_CH2.c **** ********************************************************************************
 350:.\Generated_Source\PSoC4/isr_CH2.c **** *
 351:.\Generated_Source\PSoC4/isr_CH2.c **** * Summary:
 352:.\Generated_Source\PSoC4/isr_CH2.c **** *   Disables the Interrupt in the interrupt controller.
 353:.\Generated_Source\PSoC4/isr_CH2.c **** *
ARM GAS  C:\Users\ole\AppData\Local\Temp\ccNCmRcd.s 			page 15


 354:.\Generated_Source\PSoC4/isr_CH2.c **** * Parameters:
 355:.\Generated_Source\PSoC4/isr_CH2.c **** *   None
 356:.\Generated_Source\PSoC4/isr_CH2.c **** *
 357:.\Generated_Source\PSoC4/isr_CH2.c **** * Return:
 358:.\Generated_Source\PSoC4/isr_CH2.c **** *   None
 359:.\Generated_Source\PSoC4/isr_CH2.c **** *
 360:.\Generated_Source\PSoC4/isr_CH2.c **** *******************************************************************************/
 361:.\Generated_Source\PSoC4/isr_CH2.c **** void isr_CH2_Disable(void)
 362:.\Generated_Source\PSoC4/isr_CH2.c **** {
 445              		.loc 1 362 0
 446              		.cfi_startproc
 447 0000 80B5     		push	{r7, lr}
 448              		.cfi_def_cfa_offset 8
 449              		.cfi_offset 7, -8
 450              		.cfi_offset 14, -4
 451 0002 00AF     		add	r7, sp, #0
 452              		.cfi_def_cfa_register 7
 363:.\Generated_Source\PSoC4/isr_CH2.c ****     /* Disable the general interrupt. */
 364:.\Generated_Source\PSoC4/isr_CH2.c ****     *isr_CH2_INTC_CLR_EN = isr_CH2__INTC_MASK;
 453              		.loc 1 364 0
 454 0004 024B     		ldr	r3, .L36
 455 0006 8022     		mov	r2, #128
 456 0008 9202     		lsl	r2, r2, #10
 457 000a 1A60     		str	r2, [r3]
 365:.\Generated_Source\PSoC4/isr_CH2.c **** }
 458              		.loc 1 365 0
 459 000c BD46     		mov	sp, r7
 460              		@ sp needed
 461 000e 80BD     		pop	{r7, pc}
 462              	.L37:
 463              		.align	2
 464              	.L36:
 465 0010 80E100E0 		.word	-536813184
 466              		.cfi_endproc
 467              	.LFE43:
 468              		.size	isr_CH2_Disable, .-isr_CH2_Disable
 469              		.section	.text.isr_CH2_SetPending,"ax",%progbits
 470              		.align	2
 471              		.global	isr_CH2_SetPending
 472              		.code	16
 473              		.thumb_func
 474              		.type	isr_CH2_SetPending, %function
 475              	isr_CH2_SetPending:
 476              	.LFB44:
 366:.\Generated_Source\PSoC4/isr_CH2.c **** 
 367:.\Generated_Source\PSoC4/isr_CH2.c **** 
 368:.\Generated_Source\PSoC4/isr_CH2.c **** /*******************************************************************************
 369:.\Generated_Source\PSoC4/isr_CH2.c **** * Function Name: isr_CH2_SetPending
 370:.\Generated_Source\PSoC4/isr_CH2.c **** ********************************************************************************
 371:.\Generated_Source\PSoC4/isr_CH2.c **** *
 372:.\Generated_Source\PSoC4/isr_CH2.c **** * Summary:
 373:.\Generated_Source\PSoC4/isr_CH2.c **** *   Causes the Interrupt to enter the pending state, a software method of
 374:.\Generated_Source\PSoC4/isr_CH2.c **** *   generating the interrupt.
 375:.\Generated_Source\PSoC4/isr_CH2.c **** *
 376:.\Generated_Source\PSoC4/isr_CH2.c **** * Parameters:
 377:.\Generated_Source\PSoC4/isr_CH2.c **** *   None
 378:.\Generated_Source\PSoC4/isr_CH2.c **** *
ARM GAS  C:\Users\ole\AppData\Local\Temp\ccNCmRcd.s 			page 16


 379:.\Generated_Source\PSoC4/isr_CH2.c **** * Return:
 380:.\Generated_Source\PSoC4/isr_CH2.c **** *   None
 381:.\Generated_Source\PSoC4/isr_CH2.c **** *
 382:.\Generated_Source\PSoC4/isr_CH2.c **** * Side Effects:
 383:.\Generated_Source\PSoC4/isr_CH2.c **** *   If interrupts are enabled and the interrupt is set up properly, the ISR is
 384:.\Generated_Source\PSoC4/isr_CH2.c **** *   entered (depending on the priority of this interrupt and other pending 
 385:.\Generated_Source\PSoC4/isr_CH2.c **** *   interrupts).
 386:.\Generated_Source\PSoC4/isr_CH2.c **** *
 387:.\Generated_Source\PSoC4/isr_CH2.c **** *******************************************************************************/
 388:.\Generated_Source\PSoC4/isr_CH2.c **** void isr_CH2_SetPending(void)
 389:.\Generated_Source\PSoC4/isr_CH2.c **** {
 477              		.loc 1 389 0
 478              		.cfi_startproc
 479 0000 80B5     		push	{r7, lr}
 480              		.cfi_def_cfa_offset 8
 481              		.cfi_offset 7, -8
 482              		.cfi_offset 14, -4
 483 0002 00AF     		add	r7, sp, #0
 484              		.cfi_def_cfa_register 7
 390:.\Generated_Source\PSoC4/isr_CH2.c ****     *isr_CH2_INTC_SET_PD = isr_CH2__INTC_MASK;
 485              		.loc 1 390 0
 486 0004 024B     		ldr	r3, .L39
 487 0006 8022     		mov	r2, #128
 488 0008 9202     		lsl	r2, r2, #10
 489 000a 1A60     		str	r2, [r3]
 391:.\Generated_Source\PSoC4/isr_CH2.c **** }
 490              		.loc 1 391 0
 491 000c BD46     		mov	sp, r7
 492              		@ sp needed
 493 000e 80BD     		pop	{r7, pc}
 494              	.L40:
 495              		.align	2
 496              	.L39:
 497 0010 00E200E0 		.word	-536813056
 498              		.cfi_endproc
 499              	.LFE44:
 500              		.size	isr_CH2_SetPending, .-isr_CH2_SetPending
 501              		.section	.text.isr_CH2_ClearPending,"ax",%progbits
 502              		.align	2
 503              		.global	isr_CH2_ClearPending
 504              		.code	16
 505              		.thumb_func
 506              		.type	isr_CH2_ClearPending, %function
 507              	isr_CH2_ClearPending:
 508              	.LFB45:
 392:.\Generated_Source\PSoC4/isr_CH2.c **** 
 393:.\Generated_Source\PSoC4/isr_CH2.c **** 
 394:.\Generated_Source\PSoC4/isr_CH2.c **** /*******************************************************************************
 395:.\Generated_Source\PSoC4/isr_CH2.c **** * Function Name: isr_CH2_ClearPending
 396:.\Generated_Source\PSoC4/isr_CH2.c **** ********************************************************************************
 397:.\Generated_Source\PSoC4/isr_CH2.c **** *
 398:.\Generated_Source\PSoC4/isr_CH2.c **** * Summary:
 399:.\Generated_Source\PSoC4/isr_CH2.c **** *   Clears a pending interrupt in the interrupt controller.
 400:.\Generated_Source\PSoC4/isr_CH2.c **** *
 401:.\Generated_Source\PSoC4/isr_CH2.c **** *   Note Some interrupt sources are clear-on-read and require the block 
 402:.\Generated_Source\PSoC4/isr_CH2.c **** *   interrupt/status register to be read/cleared with the appropriate block API 
 403:.\Generated_Source\PSoC4/isr_CH2.c **** *   (GPIO, UART, and so on). Otherwise the ISR will continue to remain in 
ARM GAS  C:\Users\ole\AppData\Local\Temp\ccNCmRcd.s 			page 17


 404:.\Generated_Source\PSoC4/isr_CH2.c **** *   pending state even though the interrupt itself is cleared using this API.
 405:.\Generated_Source\PSoC4/isr_CH2.c **** *
 406:.\Generated_Source\PSoC4/isr_CH2.c **** * Parameters:
 407:.\Generated_Source\PSoC4/isr_CH2.c **** *   None
 408:.\Generated_Source\PSoC4/isr_CH2.c **** *
 409:.\Generated_Source\PSoC4/isr_CH2.c **** * Return:
 410:.\Generated_Source\PSoC4/isr_CH2.c **** *   None
 411:.\Generated_Source\PSoC4/isr_CH2.c **** *
 412:.\Generated_Source\PSoC4/isr_CH2.c **** *******************************************************************************/
 413:.\Generated_Source\PSoC4/isr_CH2.c **** void isr_CH2_ClearPending(void)
 414:.\Generated_Source\PSoC4/isr_CH2.c **** {
 509              		.loc 1 414 0
 510              		.cfi_startproc
 511 0000 80B5     		push	{r7, lr}
 512              		.cfi_def_cfa_offset 8
 513              		.cfi_offset 7, -8
 514              		.cfi_offset 14, -4
 515 0002 00AF     		add	r7, sp, #0
 516              		.cfi_def_cfa_register 7
 415:.\Generated_Source\PSoC4/isr_CH2.c ****     *isr_CH2_INTC_CLR_PD = isr_CH2__INTC_MASK;
 517              		.loc 1 415 0
 518 0004 024B     		ldr	r3, .L42
 519 0006 8022     		mov	r2, #128
 520 0008 9202     		lsl	r2, r2, #10
 521 000a 1A60     		str	r2, [r3]
 416:.\Generated_Source\PSoC4/isr_CH2.c **** }
 522              		.loc 1 416 0
 523 000c BD46     		mov	sp, r7
 524              		@ sp needed
 525 000e 80BD     		pop	{r7, pc}
 526              	.L43:
 527              		.align	2
 528              	.L42:
 529 0010 80E200E0 		.word	-536812928
 530              		.cfi_endproc
 531              	.LFE45:
 532              		.size	isr_CH2_ClearPending, .-isr_CH2_ClearPending
 533              		.text
 534              	.Letext0:
 535              		.file 2 ".\\Generated_Source\\PSoC4/cytypes.h"