ARM GAS  C:\Users\ole\AppData\Local\Temp\cck8QHbQ.s 			page 1


   1              		.cpu cortex-m0
   2              		.fpu softvfp
   3              		.eabi_attribute 20, 1
   4              		.eabi_attribute 21, 1
   5              		.eabi_attribute 23, 3
   6              		.eabi_attribute 24, 1
   7              		.eabi_attribute 25, 1
   8              		.eabi_attribute 26, 1
   9              		.eabi_attribute 30, 6
  10              		.eabi_attribute 34, 0
  11              		.eabi_attribute 18, 4
  12              		.code	16
  13              		.file	"isr_CH1.c"
  14              		.text
  15              	.Ltext0:
  16              		.cfi_sections	.debug_frame
  17              		.section	.text.isr_CH1_Start,"ax",%progbits
  18              		.align	2
  19              		.global	isr_CH1_Start
  20              		.code	16
  21              		.thumb_func
  22              		.type	isr_CH1_Start, %function
  23              	isr_CH1_Start:
  24              	.LFB33:
  25              		.file 1 ".\\Generated_Source\\PSoC4\\isr_CH1.c"
   1:.\Generated_Source\PSoC4/isr_CH1.c **** /*******************************************************************************
   2:.\Generated_Source\PSoC4/isr_CH1.c **** * File Name: isr_CH1.c  
   3:.\Generated_Source\PSoC4/isr_CH1.c **** * Version 1.70
   4:.\Generated_Source\PSoC4/isr_CH1.c **** *
   5:.\Generated_Source\PSoC4/isr_CH1.c **** *  Description:
   6:.\Generated_Source\PSoC4/isr_CH1.c **** *   API for controlling the state of an interrupt.
   7:.\Generated_Source\PSoC4/isr_CH1.c **** *
   8:.\Generated_Source\PSoC4/isr_CH1.c **** *
   9:.\Generated_Source\PSoC4/isr_CH1.c **** *  Note:
  10:.\Generated_Source\PSoC4/isr_CH1.c **** *
  11:.\Generated_Source\PSoC4/isr_CH1.c **** ********************************************************************************
  12:.\Generated_Source\PSoC4/isr_CH1.c **** * Copyright 2008-2015, Cypress Semiconductor Corporation.  All rights reserved.
  13:.\Generated_Source\PSoC4/isr_CH1.c **** * You may use this file only in accordance with the license, terms, conditions, 
  14:.\Generated_Source\PSoC4/isr_CH1.c **** * disclaimers, and limitations in the end user license agreement accompanying 
  15:.\Generated_Source\PSoC4/isr_CH1.c **** * the software package with which this file was provided.
  16:.\Generated_Source\PSoC4/isr_CH1.c **** *******************************************************************************/
  17:.\Generated_Source\PSoC4/isr_CH1.c **** 
  18:.\Generated_Source\PSoC4/isr_CH1.c **** 
  19:.\Generated_Source\PSoC4/isr_CH1.c **** #include <cydevice_trm.h>
  20:.\Generated_Source\PSoC4/isr_CH1.c **** #include <CyLib.h>
  21:.\Generated_Source\PSoC4/isr_CH1.c **** #include <isr_CH1.h>
  22:.\Generated_Source\PSoC4/isr_CH1.c **** 
  23:.\Generated_Source\PSoC4/isr_CH1.c **** #if !defined(isr_CH1__REMOVED) /* Check for removal by optimization */
  24:.\Generated_Source\PSoC4/isr_CH1.c **** 
  25:.\Generated_Source\PSoC4/isr_CH1.c **** /*******************************************************************************
  26:.\Generated_Source\PSoC4/isr_CH1.c **** *  Place your includes, defines and code here 
  27:.\Generated_Source\PSoC4/isr_CH1.c **** ********************************************************************************/
  28:.\Generated_Source\PSoC4/isr_CH1.c **** /* `#START isr_CH1_intc` */
  29:.\Generated_Source\PSoC4/isr_CH1.c **** 
  30:.\Generated_Source\PSoC4/isr_CH1.c **** #include <project.h>   
  31:.\Generated_Source\PSoC4/isr_CH1.c **** #include <stdio.h> 
  32:.\Generated_Source\PSoC4/isr_CH1.c ****     
ARM GAS  C:\Users\ole\AppData\Local\Temp\cck8QHbQ.s 			page 2


  33:.\Generated_Source\PSoC4/isr_CH1.c **** extern uint16 chanel_value[2];
  34:.\Generated_Source\PSoC4/isr_CH1.c **** enum index {one = 0, two};
  35:.\Generated_Source\PSoC4/isr_CH1.c **** /* `#END` */
  36:.\Generated_Source\PSoC4/isr_CH1.c **** 
  37:.\Generated_Source\PSoC4/isr_CH1.c **** extern cyisraddress CyRamVectors[CYINT_IRQ_BASE + CY_NUM_INTERRUPTS];
  38:.\Generated_Source\PSoC4/isr_CH1.c **** 
  39:.\Generated_Source\PSoC4/isr_CH1.c **** /* Declared in startup, used to set unused interrupts to. */
  40:.\Generated_Source\PSoC4/isr_CH1.c **** CY_ISR_PROTO(IntDefaultHandler);
  41:.\Generated_Source\PSoC4/isr_CH1.c **** 
  42:.\Generated_Source\PSoC4/isr_CH1.c **** 
  43:.\Generated_Source\PSoC4/isr_CH1.c **** /*******************************************************************************
  44:.\Generated_Source\PSoC4/isr_CH1.c **** * Function Name: isr_CH1_Start
  45:.\Generated_Source\PSoC4/isr_CH1.c **** ********************************************************************************
  46:.\Generated_Source\PSoC4/isr_CH1.c **** *
  47:.\Generated_Source\PSoC4/isr_CH1.c **** * Summary:
  48:.\Generated_Source\PSoC4/isr_CH1.c **** *  Set up the interrupt and enable it. This function disables the interrupt, 
  49:.\Generated_Source\PSoC4/isr_CH1.c **** *  sets the default interrupt vector, sets the priority from the value in the
  50:.\Generated_Source\PSoC4/isr_CH1.c **** *  Design Wide Resources Interrupt Editor, then enables the interrupt to the 
  51:.\Generated_Source\PSoC4/isr_CH1.c **** *  interrupt controller.
  52:.\Generated_Source\PSoC4/isr_CH1.c **** *
  53:.\Generated_Source\PSoC4/isr_CH1.c **** * Parameters:  
  54:.\Generated_Source\PSoC4/isr_CH1.c **** *   None
  55:.\Generated_Source\PSoC4/isr_CH1.c **** *
  56:.\Generated_Source\PSoC4/isr_CH1.c **** * Return:
  57:.\Generated_Source\PSoC4/isr_CH1.c **** *   None
  58:.\Generated_Source\PSoC4/isr_CH1.c **** *
  59:.\Generated_Source\PSoC4/isr_CH1.c **** *******************************************************************************/
  60:.\Generated_Source\PSoC4/isr_CH1.c **** void isr_CH1_Start(void)
  61:.\Generated_Source\PSoC4/isr_CH1.c **** {
  26              		.loc 1 61 0
  27              		.cfi_startproc
  28 0000 80B5     		push	{r7, lr}
  29              		.cfi_def_cfa_offset 8
  30              		.cfi_offset 7, -8
  31              		.cfi_offset 14, -4
  32 0002 00AF     		add	r7, sp, #0
  33              		.cfi_def_cfa_register 7
  62:.\Generated_Source\PSoC4/isr_CH1.c ****     /* For all we know the interrupt is active. */
  63:.\Generated_Source\PSoC4/isr_CH1.c ****     isr_CH1_Disable();
  34              		.loc 1 63 0
  35 0004 FFF7FEFF 		bl	isr_CH1_Disable
  64:.\Generated_Source\PSoC4/isr_CH1.c **** 
  65:.\Generated_Source\PSoC4/isr_CH1.c ****     /* Set the ISR to point to the isr_CH1 Interrupt. */
  66:.\Generated_Source\PSoC4/isr_CH1.c ****     isr_CH1_SetVector(&isr_CH1_Interrupt);
  36              		.loc 1 66 0
  37 0008 054B     		ldr	r3, .L2
  38 000a 181C     		mov	r0, r3
  39 000c FFF7FEFF 		bl	isr_CH1_SetVector
  67:.\Generated_Source\PSoC4/isr_CH1.c **** 
  68:.\Generated_Source\PSoC4/isr_CH1.c ****     /* Set the priority. */
  69:.\Generated_Source\PSoC4/isr_CH1.c ****     isr_CH1_SetPriority((uint8)isr_CH1_INTC_PRIOR_NUMBER);
  40              		.loc 1 69 0
  41 0010 0320     		mov	r0, #3
  42 0012 FFF7FEFF 		bl	isr_CH1_SetPriority
  70:.\Generated_Source\PSoC4/isr_CH1.c **** 
  71:.\Generated_Source\PSoC4/isr_CH1.c ****     /* Enable it. */
  72:.\Generated_Source\PSoC4/isr_CH1.c ****     isr_CH1_Enable();
ARM GAS  C:\Users\ole\AppData\Local\Temp\cck8QHbQ.s 			page 3


  43              		.loc 1 72 0
  44 0016 FFF7FEFF 		bl	isr_CH1_Enable
  73:.\Generated_Source\PSoC4/isr_CH1.c **** }
  45              		.loc 1 73 0
  46 001a BD46     		mov	sp, r7
  47              		@ sp needed
  48 001c 80BD     		pop	{r7, pc}
  49              	.L3:
  50 001e C046     		.align	2
  51              	.L2:
  52 0020 00000000 		.word	isr_CH1_Interrupt
  53              		.cfi_endproc
  54              	.LFE33:
  55              		.size	isr_CH1_Start, .-isr_CH1_Start
  56              		.section	.text.isr_CH1_StartEx,"ax",%progbits
  57              		.align	2
  58              		.global	isr_CH1_StartEx
  59              		.code	16
  60              		.thumb_func
  61              		.type	isr_CH1_StartEx, %function
  62              	isr_CH1_StartEx:
  63              	.LFB34:
  74:.\Generated_Source\PSoC4/isr_CH1.c **** 
  75:.\Generated_Source\PSoC4/isr_CH1.c **** 
  76:.\Generated_Source\PSoC4/isr_CH1.c **** /*******************************************************************************
  77:.\Generated_Source\PSoC4/isr_CH1.c **** * Function Name: isr_CH1_StartEx
  78:.\Generated_Source\PSoC4/isr_CH1.c **** ********************************************************************************
  79:.\Generated_Source\PSoC4/isr_CH1.c **** *
  80:.\Generated_Source\PSoC4/isr_CH1.c **** * Summary:
  81:.\Generated_Source\PSoC4/isr_CH1.c **** *  Sets up the interrupt and enables it. This function disables the interrupt,
  82:.\Generated_Source\PSoC4/isr_CH1.c **** *  sets the interrupt vector based on the address passed in, sets the priority 
  83:.\Generated_Source\PSoC4/isr_CH1.c **** *  from the value in the Design Wide Resources Interrupt Editor, then enables 
  84:.\Generated_Source\PSoC4/isr_CH1.c **** *  the interrupt to the interrupt controller.
  85:.\Generated_Source\PSoC4/isr_CH1.c **** *  
  86:.\Generated_Source\PSoC4/isr_CH1.c **** *  When defining ISR functions, the CY_ISR and CY_ISR_PROTO macros should be 
  87:.\Generated_Source\PSoC4/isr_CH1.c **** *  used to provide consistent definition across compilers:
  88:.\Generated_Source\PSoC4/isr_CH1.c **** *  
  89:.\Generated_Source\PSoC4/isr_CH1.c **** *  Function definition example:
  90:.\Generated_Source\PSoC4/isr_CH1.c **** *   CY_ISR(MyISR)
  91:.\Generated_Source\PSoC4/isr_CH1.c **** *   {
  92:.\Generated_Source\PSoC4/isr_CH1.c **** *   }
  93:.\Generated_Source\PSoC4/isr_CH1.c **** *   Function prototype example:
  94:.\Generated_Source\PSoC4/isr_CH1.c **** *   CY_ISR_PROTO(MyISR);
  95:.\Generated_Source\PSoC4/isr_CH1.c **** *
  96:.\Generated_Source\PSoC4/isr_CH1.c **** * Parameters:  
  97:.\Generated_Source\PSoC4/isr_CH1.c **** *   address: Address of the ISR to set in the interrupt vector table.
  98:.\Generated_Source\PSoC4/isr_CH1.c **** *
  99:.\Generated_Source\PSoC4/isr_CH1.c **** * Return:
 100:.\Generated_Source\PSoC4/isr_CH1.c **** *   None
 101:.\Generated_Source\PSoC4/isr_CH1.c **** *
 102:.\Generated_Source\PSoC4/isr_CH1.c **** *******************************************************************************/
 103:.\Generated_Source\PSoC4/isr_CH1.c **** void isr_CH1_StartEx(cyisraddress address)
 104:.\Generated_Source\PSoC4/isr_CH1.c **** {
  64              		.loc 1 104 0
  65              		.cfi_startproc
  66 0000 80B5     		push	{r7, lr}
  67              		.cfi_def_cfa_offset 8
ARM GAS  C:\Users\ole\AppData\Local\Temp\cck8QHbQ.s 			page 4


  68              		.cfi_offset 7, -8
  69              		.cfi_offset 14, -4
  70 0002 82B0     		sub	sp, sp, #8
  71              		.cfi_def_cfa_offset 16
  72 0004 00AF     		add	r7, sp, #0
  73              		.cfi_def_cfa_register 7
  74 0006 7860     		str	r0, [r7, #4]
 105:.\Generated_Source\PSoC4/isr_CH1.c ****     /* For all we know the interrupt is active. */
 106:.\Generated_Source\PSoC4/isr_CH1.c ****     isr_CH1_Disable();
  75              		.loc 1 106 0
  76 0008 FFF7FEFF 		bl	isr_CH1_Disable
 107:.\Generated_Source\PSoC4/isr_CH1.c **** 
 108:.\Generated_Source\PSoC4/isr_CH1.c ****     /* Set the ISR to point to the isr_CH1 Interrupt. */
 109:.\Generated_Source\PSoC4/isr_CH1.c ****     isr_CH1_SetVector(address);
  77              		.loc 1 109 0
  78 000c 7B68     		ldr	r3, [r7, #4]
  79 000e 181C     		mov	r0, r3
  80 0010 FFF7FEFF 		bl	isr_CH1_SetVector
 110:.\Generated_Source\PSoC4/isr_CH1.c **** 
 111:.\Generated_Source\PSoC4/isr_CH1.c ****     /* Set the priority. */
 112:.\Generated_Source\PSoC4/isr_CH1.c ****     isr_CH1_SetPriority((uint8)isr_CH1_INTC_PRIOR_NUMBER);
  81              		.loc 1 112 0
  82 0014 0320     		mov	r0, #3
  83 0016 FFF7FEFF 		bl	isr_CH1_SetPriority
 113:.\Generated_Source\PSoC4/isr_CH1.c **** 
 114:.\Generated_Source\PSoC4/isr_CH1.c ****     /* Enable it. */
 115:.\Generated_Source\PSoC4/isr_CH1.c ****     isr_CH1_Enable();
  84              		.loc 1 115 0
  85 001a FFF7FEFF 		bl	isr_CH1_Enable
 116:.\Generated_Source\PSoC4/isr_CH1.c **** }
  86              		.loc 1 116 0
  87 001e BD46     		mov	sp, r7
  88 0020 02B0     		add	sp, sp, #8
  89              		@ sp needed
  90 0022 80BD     		pop	{r7, pc}
  91              		.cfi_endproc
  92              	.LFE34:
  93              		.size	isr_CH1_StartEx, .-isr_CH1_StartEx
  94              		.section	.text.isr_CH1_Stop,"ax",%progbits
  95              		.align	2
  96              		.global	isr_CH1_Stop
  97              		.code	16
  98              		.thumb_func
  99              		.type	isr_CH1_Stop, %function
 100              	isr_CH1_Stop:
 101              	.LFB35:
 117:.\Generated_Source\PSoC4/isr_CH1.c **** 
 118:.\Generated_Source\PSoC4/isr_CH1.c **** 
 119:.\Generated_Source\PSoC4/isr_CH1.c **** /*******************************************************************************
 120:.\Generated_Source\PSoC4/isr_CH1.c **** * Function Name: isr_CH1_Stop
 121:.\Generated_Source\PSoC4/isr_CH1.c **** ********************************************************************************
 122:.\Generated_Source\PSoC4/isr_CH1.c **** *
 123:.\Generated_Source\PSoC4/isr_CH1.c **** * Summary:
 124:.\Generated_Source\PSoC4/isr_CH1.c **** *   Disables and removes the interrupt.
 125:.\Generated_Source\PSoC4/isr_CH1.c **** *
 126:.\Generated_Source\PSoC4/isr_CH1.c **** * Parameters:  
 127:.\Generated_Source\PSoC4/isr_CH1.c **** *   None
ARM GAS  C:\Users\ole\AppData\Local\Temp\cck8QHbQ.s 			page 5


 128:.\Generated_Source\PSoC4/isr_CH1.c **** *
 129:.\Generated_Source\PSoC4/isr_CH1.c **** * Return:
 130:.\Generated_Source\PSoC4/isr_CH1.c **** *   None
 131:.\Generated_Source\PSoC4/isr_CH1.c **** *
 132:.\Generated_Source\PSoC4/isr_CH1.c **** *******************************************************************************/
 133:.\Generated_Source\PSoC4/isr_CH1.c **** void isr_CH1_Stop(void)
 134:.\Generated_Source\PSoC4/isr_CH1.c **** {
 102              		.loc 1 134 0
 103              		.cfi_startproc
 104 0000 80B5     		push	{r7, lr}
 105              		.cfi_def_cfa_offset 8
 106              		.cfi_offset 7, -8
 107              		.cfi_offset 14, -4
 108 0002 00AF     		add	r7, sp, #0
 109              		.cfi_def_cfa_register 7
 135:.\Generated_Source\PSoC4/isr_CH1.c ****     /* Disable this interrupt. */
 136:.\Generated_Source\PSoC4/isr_CH1.c ****     isr_CH1_Disable();
 110              		.loc 1 136 0
 111 0004 FFF7FEFF 		bl	isr_CH1_Disable
 137:.\Generated_Source\PSoC4/isr_CH1.c **** 
 138:.\Generated_Source\PSoC4/isr_CH1.c ****     /* Set the ISR to point to the passive one. */
 139:.\Generated_Source\PSoC4/isr_CH1.c ****     isr_CH1_SetVector(&IntDefaultHandler);
 112              		.loc 1 139 0
 113 0008 024B     		ldr	r3, .L6
 114 000a 181C     		mov	r0, r3
 115 000c FFF7FEFF 		bl	isr_CH1_SetVector
 140:.\Generated_Source\PSoC4/isr_CH1.c **** }
 116              		.loc 1 140 0
 117 0010 BD46     		mov	sp, r7
 118              		@ sp needed
 119 0012 80BD     		pop	{r7, pc}
 120              	.L7:
 121              		.align	2
 122              	.L6:
 123 0014 00000000 		.word	IntDefaultHandler
 124              		.cfi_endproc
 125              	.LFE35:
 126              		.size	isr_CH1_Stop, .-isr_CH1_Stop
 127              		.section	.text.isr_CH1_Interrupt,"ax",%progbits
 128              		.align	2
 129              		.global	isr_CH1_Interrupt
 130              		.code	16
 131              		.thumb_func
 132              		.type	isr_CH1_Interrupt, %function
 133              	isr_CH1_Interrupt:
 134              	.LFB36:
 141:.\Generated_Source\PSoC4/isr_CH1.c **** 
 142:.\Generated_Source\PSoC4/isr_CH1.c **** 
 143:.\Generated_Source\PSoC4/isr_CH1.c **** /*******************************************************************************
 144:.\Generated_Source\PSoC4/isr_CH1.c **** * Function Name: isr_CH1_Interrupt
 145:.\Generated_Source\PSoC4/isr_CH1.c **** ********************************************************************************
 146:.\Generated_Source\PSoC4/isr_CH1.c **** *
 147:.\Generated_Source\PSoC4/isr_CH1.c **** * Summary:
 148:.\Generated_Source\PSoC4/isr_CH1.c **** *   The default Interrupt Service Routine for isr_CH1.
 149:.\Generated_Source\PSoC4/isr_CH1.c **** *
 150:.\Generated_Source\PSoC4/isr_CH1.c **** *   Add custom code between the START and END comments to keep the next version
 151:.\Generated_Source\PSoC4/isr_CH1.c **** *   of this file from over-writing your code.
ARM GAS  C:\Users\ole\AppData\Local\Temp\cck8QHbQ.s 			page 6


 152:.\Generated_Source\PSoC4/isr_CH1.c **** *
 153:.\Generated_Source\PSoC4/isr_CH1.c **** *   Note You may use either the default ISR by using this API, or you may define
 154:.\Generated_Source\PSoC4/isr_CH1.c **** *   your own separate ISR through ISR_StartEx().
 155:.\Generated_Source\PSoC4/isr_CH1.c **** *
 156:.\Generated_Source\PSoC4/isr_CH1.c **** * Parameters:  
 157:.\Generated_Source\PSoC4/isr_CH1.c **** *   None
 158:.\Generated_Source\PSoC4/isr_CH1.c **** *
 159:.\Generated_Source\PSoC4/isr_CH1.c **** * Return:
 160:.\Generated_Source\PSoC4/isr_CH1.c **** *   None
 161:.\Generated_Source\PSoC4/isr_CH1.c **** *
 162:.\Generated_Source\PSoC4/isr_CH1.c **** *******************************************************************************/
 163:.\Generated_Source\PSoC4/isr_CH1.c **** CY_ISR(isr_CH1_Interrupt)
 164:.\Generated_Source\PSoC4/isr_CH1.c **** {
 135              		.loc 1 164 0
 136              		.cfi_startproc
 137 0000 80B5     		push	{r7, lr}
 138              		.cfi_def_cfa_offset 8
 139              		.cfi_offset 7, -8
 140              		.cfi_offset 14, -4
 141 0002 82B0     		sub	sp, sp, #8
 142              		.cfi_def_cfa_offset 16
 143 0004 00AF     		add	r7, sp, #0
 144              		.cfi_def_cfa_register 7
 165:.\Generated_Source\PSoC4/isr_CH1.c ****     /*  Place your Interrupt code here. */
 166:.\Generated_Source\PSoC4/isr_CH1.c ****     /* `#START isr_CH1_Interrupt` */
 167:.\Generated_Source\PSoC4/isr_CH1.c ****     int time;
 168:.\Generated_Source\PSoC4/isr_CH1.c ****     //char8 buffer[15];
 169:.\Generated_Source\PSoC4/isr_CH1.c ****     
 170:.\Generated_Source\PSoC4/isr_CH1.c ****     isr_CH1_ClearPending();
 145              		.loc 1 170 0
 146 0006 FFF7FEFF 		bl	isr_CH1_ClearPending
 171:.\Generated_Source\PSoC4/isr_CH1.c ****     Timer_CH1_ClearInterrupt(Timer_CH1_INTR_MASK_CC_MATCH);
 147              		.loc 1 171 0
 148 000a 0220     		mov	r0, #2
 149 000c FFF7FEFF 		bl	Timer_CH1_ClearInterrupt
 172:.\Generated_Source\PSoC4/isr_CH1.c ****     time = (int) Timer_CH1_ReadCounter();
 150              		.loc 1 172 0
 151 0010 FFF7FEFF 		bl	Timer_CH1_ReadCounter
 152 0014 031C     		mov	r3, r0
 153 0016 7B60     		str	r3, [r7, #4]
 173:.\Generated_Source\PSoC4/isr_CH1.c ****     Timer_CH1_WriteCounter(0);
 154              		.loc 1 173 0
 155 0018 0020     		mov	r0, #0
 156 001a FFF7FEFF 		bl	Timer_CH1_WriteCounter
 174:.\Generated_Source\PSoC4/isr_CH1.c ****     if  (time < 2200)
 157              		.loc 1 174 0
 158 001e 7A68     		ldr	r2, [r7, #4]
 159 0020 044B     		ldr	r3, .L10
 160 0022 9A42     		cmp	r2, r3
 161 0024 03DC     		bgt	.L8
 175:.\Generated_Source\PSoC4/isr_CH1.c ****     {
 176:.\Generated_Source\PSoC4/isr_CH1.c ****         chanel_value[one] = time;
 162              		.loc 1 176 0
 163 0026 7B68     		ldr	r3, [r7, #4]
 164 0028 9AB2     		uxth	r2, r3
 165 002a 034B     		ldr	r3, .L10+4
 166 002c 1A80     		strh	r2, [r3]
ARM GAS  C:\Users\ole\AppData\Local\Temp\cck8QHbQ.s 			page 7


 167              	.L8:
 177:.\Generated_Source\PSoC4/isr_CH1.c ****         //sprintf(buffer,"CH1 %d ", time);
 178:.\Generated_Source\PSoC4/isr_CH1.c ****         //UART_1_UartPutString(buffer);
 179:.\Generated_Source\PSoC4/isr_CH1.c ****     }
 180:.\Generated_Source\PSoC4/isr_CH1.c ****     /* `#END` */
 181:.\Generated_Source\PSoC4/isr_CH1.c **** }
 168              		.loc 1 181 0
 169 002e BD46     		mov	sp, r7
 170 0030 02B0     		add	sp, sp, #8
 171              		@ sp needed
 172 0032 80BD     		pop	{r7, pc}
 173              	.L11:
 174              		.align	2
 175              	.L10:
 176 0034 97080000 		.word	2199
 177 0038 00000000 		.word	chanel_value
 178              		.cfi_endproc
 179              	.LFE36:
 180              		.size	isr_CH1_Interrupt, .-isr_CH1_Interrupt
 181              		.section	.text.isr_CH1_SetVector,"ax",%progbits
 182              		.align	2
 183              		.global	isr_CH1_SetVector
 184              		.code	16
 185              		.thumb_func
 186              		.type	isr_CH1_SetVector, %function
 187              	isr_CH1_SetVector:
 188              	.LFB37:
 182:.\Generated_Source\PSoC4/isr_CH1.c **** 
 183:.\Generated_Source\PSoC4/isr_CH1.c **** 
 184:.\Generated_Source\PSoC4/isr_CH1.c **** /*******************************************************************************
 185:.\Generated_Source\PSoC4/isr_CH1.c **** * Function Name: isr_CH1_SetVector
 186:.\Generated_Source\PSoC4/isr_CH1.c **** ********************************************************************************
 187:.\Generated_Source\PSoC4/isr_CH1.c **** *
 188:.\Generated_Source\PSoC4/isr_CH1.c **** * Summary:
 189:.\Generated_Source\PSoC4/isr_CH1.c **** *   Change the ISR vector for the Interrupt. Note calling isr_CH1_Start
 190:.\Generated_Source\PSoC4/isr_CH1.c **** *   will override any effect this method would have had. To set the vector 
 191:.\Generated_Source\PSoC4/isr_CH1.c **** *   before the component has been started use isr_CH1_StartEx instead.
 192:.\Generated_Source\PSoC4/isr_CH1.c **** * 
 193:.\Generated_Source\PSoC4/isr_CH1.c **** *   When defining ISR functions, the CY_ISR and CY_ISR_PROTO macros should be 
 194:.\Generated_Source\PSoC4/isr_CH1.c **** *   used to provide consistent definition across compilers:
 195:.\Generated_Source\PSoC4/isr_CH1.c **** *
 196:.\Generated_Source\PSoC4/isr_CH1.c **** *   Function definition example:
 197:.\Generated_Source\PSoC4/isr_CH1.c **** *   CY_ISR(MyISR)
 198:.\Generated_Source\PSoC4/isr_CH1.c **** *   {
 199:.\Generated_Source\PSoC4/isr_CH1.c **** *   }
 200:.\Generated_Source\PSoC4/isr_CH1.c **** *
 201:.\Generated_Source\PSoC4/isr_CH1.c **** *   Function prototype example:
 202:.\Generated_Source\PSoC4/isr_CH1.c **** *     CY_ISR_PROTO(MyISR);
 203:.\Generated_Source\PSoC4/isr_CH1.c **** *
 204:.\Generated_Source\PSoC4/isr_CH1.c **** * Parameters:
 205:.\Generated_Source\PSoC4/isr_CH1.c **** *   address: Address of the ISR to set in the interrupt vector table.
 206:.\Generated_Source\PSoC4/isr_CH1.c **** *
 207:.\Generated_Source\PSoC4/isr_CH1.c **** * Return:
 208:.\Generated_Source\PSoC4/isr_CH1.c **** *   None
 209:.\Generated_Source\PSoC4/isr_CH1.c **** *
 210:.\Generated_Source\PSoC4/isr_CH1.c **** *******************************************************************************/
 211:.\Generated_Source\PSoC4/isr_CH1.c **** void isr_CH1_SetVector(cyisraddress address)
ARM GAS  C:\Users\ole\AppData\Local\Temp\cck8QHbQ.s 			page 8


 212:.\Generated_Source\PSoC4/isr_CH1.c **** {
 189              		.loc 1 212 0
 190              		.cfi_startproc
 191 0000 80B5     		push	{r7, lr}
 192              		.cfi_def_cfa_offset 8
 193              		.cfi_offset 7, -8
 194              		.cfi_offset 14, -4
 195 0002 82B0     		sub	sp, sp, #8
 196              		.cfi_def_cfa_offset 16
 197 0004 00AF     		add	r7, sp, #0
 198              		.cfi_def_cfa_register 7
 199 0006 7860     		str	r0, [r7, #4]
 213:.\Generated_Source\PSoC4/isr_CH1.c ****     CyRamVectors[CYINT_IRQ_BASE + isr_CH1__INTC_NUMBER] = address;
 200              		.loc 1 213 0
 201 0008 034A     		ldr	r2, .L13
 202 000a 8C23     		mov	r3, #140
 203 000c 7968     		ldr	r1, [r7, #4]
 204 000e D150     		str	r1, [r2, r3]
 214:.\Generated_Source\PSoC4/isr_CH1.c **** }
 205              		.loc 1 214 0
 206 0010 BD46     		mov	sp, r7
 207 0012 02B0     		add	sp, sp, #8
 208              		@ sp needed
 209 0014 80BD     		pop	{r7, pc}
 210              	.L14:
 211 0016 C046     		.align	2
 212              	.L13:
 213 0018 00000000 		.word	CyRamVectors
 214              		.cfi_endproc
 215              	.LFE37:
 216              		.size	isr_CH1_SetVector, .-isr_CH1_SetVector
 217              		.section	.text.isr_CH1_GetVector,"ax",%progbits
 218              		.align	2
 219              		.global	isr_CH1_GetVector
 220              		.code	16
 221              		.thumb_func
 222              		.type	isr_CH1_GetVector, %function
 223              	isr_CH1_GetVector:
 224              	.LFB38:
 215:.\Generated_Source\PSoC4/isr_CH1.c **** 
 216:.\Generated_Source\PSoC4/isr_CH1.c **** 
 217:.\Generated_Source\PSoC4/isr_CH1.c **** /*******************************************************************************
 218:.\Generated_Source\PSoC4/isr_CH1.c **** * Function Name: isr_CH1_GetVector
 219:.\Generated_Source\PSoC4/isr_CH1.c **** ********************************************************************************
 220:.\Generated_Source\PSoC4/isr_CH1.c **** *
 221:.\Generated_Source\PSoC4/isr_CH1.c **** * Summary:
 222:.\Generated_Source\PSoC4/isr_CH1.c **** *   Gets the "address" of the current ISR vector for the Interrupt.
 223:.\Generated_Source\PSoC4/isr_CH1.c **** *
 224:.\Generated_Source\PSoC4/isr_CH1.c **** * Parameters:
 225:.\Generated_Source\PSoC4/isr_CH1.c **** *   None
 226:.\Generated_Source\PSoC4/isr_CH1.c **** *
 227:.\Generated_Source\PSoC4/isr_CH1.c **** * Return:
 228:.\Generated_Source\PSoC4/isr_CH1.c **** *   Address of the ISR in the interrupt vector table.
 229:.\Generated_Source\PSoC4/isr_CH1.c **** *
 230:.\Generated_Source\PSoC4/isr_CH1.c **** *******************************************************************************/
 231:.\Generated_Source\PSoC4/isr_CH1.c **** cyisraddress isr_CH1_GetVector(void)
 232:.\Generated_Source\PSoC4/isr_CH1.c **** {
ARM GAS  C:\Users\ole\AppData\Local\Temp\cck8QHbQ.s 			page 9


 225              		.loc 1 232 0
 226              		.cfi_startproc
 227 0000 80B5     		push	{r7, lr}
 228              		.cfi_def_cfa_offset 8
 229              		.cfi_offset 7, -8
 230              		.cfi_offset 14, -4
 231 0002 00AF     		add	r7, sp, #0
 232              		.cfi_def_cfa_register 7
 233:.\Generated_Source\PSoC4/isr_CH1.c ****     return CyRamVectors[CYINT_IRQ_BASE + isr_CH1__INTC_NUMBER];
 233              		.loc 1 233 0
 234 0004 024A     		ldr	r2, .L17
 235 0006 8C23     		mov	r3, #140
 236 0008 D358     		ldr	r3, [r2, r3]
 234:.\Generated_Source\PSoC4/isr_CH1.c **** }
 237              		.loc 1 234 0
 238 000a 181C     		mov	r0, r3
 239 000c BD46     		mov	sp, r7
 240              		@ sp needed
 241 000e 80BD     		pop	{r7, pc}
 242              	.L18:
 243              		.align	2
 244              	.L17:
 245 0010 00000000 		.word	CyRamVectors
 246              		.cfi_endproc
 247              	.LFE38:
 248              		.size	isr_CH1_GetVector, .-isr_CH1_GetVector
 249              		.section	.text.isr_CH1_SetPriority,"ax",%progbits
 250              		.align	2
 251              		.global	isr_CH1_SetPriority
 252              		.code	16
 253              		.thumb_func
 254              		.type	isr_CH1_SetPriority, %function
 255              	isr_CH1_SetPriority:
 256              	.LFB39:
 235:.\Generated_Source\PSoC4/isr_CH1.c **** 
 236:.\Generated_Source\PSoC4/isr_CH1.c **** 
 237:.\Generated_Source\PSoC4/isr_CH1.c **** /*******************************************************************************
 238:.\Generated_Source\PSoC4/isr_CH1.c **** * Function Name: isr_CH1_SetPriority
 239:.\Generated_Source\PSoC4/isr_CH1.c **** ********************************************************************************
 240:.\Generated_Source\PSoC4/isr_CH1.c **** *
 241:.\Generated_Source\PSoC4/isr_CH1.c **** * Summary:
 242:.\Generated_Source\PSoC4/isr_CH1.c **** *   Sets the Priority of the Interrupt. 
 243:.\Generated_Source\PSoC4/isr_CH1.c **** *
 244:.\Generated_Source\PSoC4/isr_CH1.c **** *   Note calling isr_CH1_Start or isr_CH1_StartEx will 
 245:.\Generated_Source\PSoC4/isr_CH1.c **** *   override any effect this API would have had. This API should only be called
 246:.\Generated_Source\PSoC4/isr_CH1.c **** *   after isr_CH1_Start or isr_CH1_StartEx has been called. 
 247:.\Generated_Source\PSoC4/isr_CH1.c **** *   To set the initial priority for the component, use the Design-Wide Resources
 248:.\Generated_Source\PSoC4/isr_CH1.c **** *   Interrupt Editor.
 249:.\Generated_Source\PSoC4/isr_CH1.c **** *
 250:.\Generated_Source\PSoC4/isr_CH1.c **** *   Note This API has no effect on Non-maskable interrupt NMI).
 251:.\Generated_Source\PSoC4/isr_CH1.c **** *
 252:.\Generated_Source\PSoC4/isr_CH1.c **** * Parameters:
 253:.\Generated_Source\PSoC4/isr_CH1.c **** *   priority: Priority of the interrupt, 0 being the highest priority
 254:.\Generated_Source\PSoC4/isr_CH1.c **** *             PSoC 3 and PSoC 5LP: Priority is from 0 to 7.
 255:.\Generated_Source\PSoC4/isr_CH1.c **** *             PSoC 4: Priority is from 0 to 3.
 256:.\Generated_Source\PSoC4/isr_CH1.c **** *
 257:.\Generated_Source\PSoC4/isr_CH1.c **** * Return:
ARM GAS  C:\Users\ole\AppData\Local\Temp\cck8QHbQ.s 			page 10


 258:.\Generated_Source\PSoC4/isr_CH1.c **** *   None
 259:.\Generated_Source\PSoC4/isr_CH1.c **** *
 260:.\Generated_Source\PSoC4/isr_CH1.c **** *******************************************************************************/
 261:.\Generated_Source\PSoC4/isr_CH1.c **** void isr_CH1_SetPriority(uint8 priority)
 262:.\Generated_Source\PSoC4/isr_CH1.c **** {
 257              		.loc 1 262 0
 258              		.cfi_startproc
 259 0000 90B5     		push	{r4, r7, lr}
 260              		.cfi_def_cfa_offset 12
 261              		.cfi_offset 4, -12
 262              		.cfi_offset 7, -8
 263              		.cfi_offset 14, -4
 264 0002 85B0     		sub	sp, sp, #20
 265              		.cfi_def_cfa_offset 32
 266 0004 00AF     		add	r7, sp, #0
 267              		.cfi_def_cfa_register 7
 268 0006 021C     		mov	r2, r0
 269 0008 FB1D     		add	r3, r7, #7
 270 000a 1A70     		strb	r2, [r3]
 263:.\Generated_Source\PSoC4/isr_CH1.c **** 	uint8 interruptState;
 264:.\Generated_Source\PSoC4/isr_CH1.c ****     uint32 priorityOffset = ((isr_CH1__INTC_NUMBER % 4u) * 8u) + 6u;
 271              		.loc 1 264 0
 272 000c 1E23     		mov	r3, #30
 273 000e FB60     		str	r3, [r7, #12]
 265:.\Generated_Source\PSoC4/isr_CH1.c ****     
 266:.\Generated_Source\PSoC4/isr_CH1.c **** 	interruptState = CyEnterCriticalSection();
 274              		.loc 1 266 0
 275 0010 3C1C     		mov	r4, r7
 276 0012 0B34     		add	r4, r4, #11
 277 0014 FFF7FEFF 		bl	CyEnterCriticalSection
 278 0018 031C     		mov	r3, r0
 279 001a 2370     		strb	r3, [r4]
 267:.\Generated_Source\PSoC4/isr_CH1.c ****     *isr_CH1_INTC_PRIOR = (*isr_CH1_INTC_PRIOR & (uint32)(~isr_CH1__INTC_PRIOR_MASK)) |
 280              		.loc 1 267 0
 281 001c 0A4B     		ldr	r3, .L20
 282 001e 0A4A     		ldr	r2, .L20
 283 0020 1268     		ldr	r2, [r2]
 284 0022 9200     		lsl	r2, r2, #2
 285 0024 9108     		lsr	r1, r2, #2
 268:.\Generated_Source\PSoC4/isr_CH1.c ****                                     ((uint32)priority << priorityOffset);
 286              		.loc 1 268 0
 287 0026 FA1D     		add	r2, r7, #7
 288 0028 1078     		ldrb	r0, [r2]
 289 002a FA68     		ldr	r2, [r7, #12]
 290 002c 041C     		mov	r4, r0
 291 002e 9440     		lsl	r4, r4, r2
 292 0030 221C     		mov	r2, r4
 267:.\Generated_Source\PSoC4/isr_CH1.c ****     *isr_CH1_INTC_PRIOR = (*isr_CH1_INTC_PRIOR & (uint32)(~isr_CH1__INTC_PRIOR_MASK)) |
 293              		.loc 1 267 0
 294 0032 0A43     		orr	r2, r1
 295 0034 1A60     		str	r2, [r3]
 269:.\Generated_Source\PSoC4/isr_CH1.c **** 	CyExitCriticalSection(interruptState);
 296              		.loc 1 269 0
 297 0036 3B1C     		mov	r3, r7
 298 0038 0B33     		add	r3, r3, #11
 299 003a 1B78     		ldrb	r3, [r3]
 300 003c 181C     		mov	r0, r3
ARM GAS  C:\Users\ole\AppData\Local\Temp\cck8QHbQ.s 			page 11


 301 003e FFF7FEFF 		bl	CyExitCriticalSection
 270:.\Generated_Source\PSoC4/isr_CH1.c **** }
 302              		.loc 1 270 0
 303 0042 BD46     		mov	sp, r7
 304 0044 05B0     		add	sp, sp, #20
 305              		@ sp needed
 306 0046 90BD     		pop	{r4, r7, pc}
 307              	.L21:
 308              		.align	2
 309              	.L20:
 310 0048 10E400E0 		.word	-536812528
 311              		.cfi_endproc
 312              	.LFE39:
 313              		.size	isr_CH1_SetPriority, .-isr_CH1_SetPriority
 314              		.section	.text.isr_CH1_GetPriority,"ax",%progbits
 315              		.align	2
 316              		.global	isr_CH1_GetPriority
 317              		.code	16
 318              		.thumb_func
 319              		.type	isr_CH1_GetPriority, %function
 320              	isr_CH1_GetPriority:
 321              	.LFB40:
 271:.\Generated_Source\PSoC4/isr_CH1.c **** 
 272:.\Generated_Source\PSoC4/isr_CH1.c **** 
 273:.\Generated_Source\PSoC4/isr_CH1.c **** /*******************************************************************************
 274:.\Generated_Source\PSoC4/isr_CH1.c **** * Function Name: isr_CH1_GetPriority
 275:.\Generated_Source\PSoC4/isr_CH1.c **** ********************************************************************************
 276:.\Generated_Source\PSoC4/isr_CH1.c **** *
 277:.\Generated_Source\PSoC4/isr_CH1.c **** * Summary:
 278:.\Generated_Source\PSoC4/isr_CH1.c **** *   Gets the Priority of the Interrupt.
 279:.\Generated_Source\PSoC4/isr_CH1.c **** *
 280:.\Generated_Source\PSoC4/isr_CH1.c **** * Parameters:
 281:.\Generated_Source\PSoC4/isr_CH1.c **** *   None
 282:.\Generated_Source\PSoC4/isr_CH1.c **** *
 283:.\Generated_Source\PSoC4/isr_CH1.c **** * Return:
 284:.\Generated_Source\PSoC4/isr_CH1.c **** *   Priority of the interrupt, 0 being the highest priority
 285:.\Generated_Source\PSoC4/isr_CH1.c **** *    PSoC 3 and PSoC 5LP: Priority is from 0 to 7.
 286:.\Generated_Source\PSoC4/isr_CH1.c **** *    PSoC 4: Priority is from 0 to 3.
 287:.\Generated_Source\PSoC4/isr_CH1.c **** *
 288:.\Generated_Source\PSoC4/isr_CH1.c **** *******************************************************************************/
 289:.\Generated_Source\PSoC4/isr_CH1.c **** uint8 isr_CH1_GetPriority(void)
 290:.\Generated_Source\PSoC4/isr_CH1.c **** {
 322              		.loc 1 290 0
 323              		.cfi_startproc
 324 0000 80B5     		push	{r7, lr}
 325              		.cfi_def_cfa_offset 8
 326              		.cfi_offset 7, -8
 327              		.cfi_offset 14, -4
 328 0002 82B0     		sub	sp, sp, #8
 329              		.cfi_def_cfa_offset 16
 330 0004 00AF     		add	r7, sp, #0
 331              		.cfi_def_cfa_register 7
 291:.\Generated_Source\PSoC4/isr_CH1.c ****     uint32 priority;
 292:.\Generated_Source\PSoC4/isr_CH1.c **** 	uint32 priorityOffset = ((isr_CH1__INTC_NUMBER % 4u) * 8u) + 6u;
 332              		.loc 1 292 0
 333 0006 1E23     		mov	r3, #30
 334 0008 7B60     		str	r3, [r7, #4]
ARM GAS  C:\Users\ole\AppData\Local\Temp\cck8QHbQ.s 			page 12


 293:.\Generated_Source\PSoC4/isr_CH1.c **** 
 294:.\Generated_Source\PSoC4/isr_CH1.c ****     priority = (*isr_CH1_INTC_PRIOR & isr_CH1__INTC_PRIOR_MASK) >> priorityOffset;
 335              		.loc 1 294 0
 336 000a 074B     		ldr	r3, .L24
 337 000c 1B68     		ldr	r3, [r3]
 338 000e 9B0F     		lsr	r3, r3, #30
 339 0010 9A07     		lsl	r2, r3, #30
 340 0012 7B68     		ldr	r3, [r7, #4]
 341 0014 111C     		mov	r1, r2
 342 0016 D940     		lsr	r1, r1, r3
 343 0018 0B1C     		mov	r3, r1
 344 001a 3B60     		str	r3, [r7]
 295:.\Generated_Source\PSoC4/isr_CH1.c **** 
 296:.\Generated_Source\PSoC4/isr_CH1.c ****     return (uint8)priority;
 345              		.loc 1 296 0
 346 001c 3B68     		ldr	r3, [r7]
 347 001e DBB2     		uxtb	r3, r3
 297:.\Generated_Source\PSoC4/isr_CH1.c **** }
 348              		.loc 1 297 0
 349 0020 181C     		mov	r0, r3
 350 0022 BD46     		mov	sp, r7
 351 0024 02B0     		add	sp, sp, #8
 352              		@ sp needed
 353 0026 80BD     		pop	{r7, pc}
 354              	.L25:
 355              		.align	2
 356              	.L24:
 357 0028 10E400E0 		.word	-536812528
 358              		.cfi_endproc
 359              	.LFE40:
 360              		.size	isr_CH1_GetPriority, .-isr_CH1_GetPriority
 361              		.section	.text.isr_CH1_Enable,"ax",%progbits
 362              		.align	2
 363              		.global	isr_CH1_Enable
 364              		.code	16
 365              		.thumb_func
 366              		.type	isr_CH1_Enable, %function
 367              	isr_CH1_Enable:
 368              	.LFB41:
 298:.\Generated_Source\PSoC4/isr_CH1.c **** 
 299:.\Generated_Source\PSoC4/isr_CH1.c **** 
 300:.\Generated_Source\PSoC4/isr_CH1.c **** /*******************************************************************************
 301:.\Generated_Source\PSoC4/isr_CH1.c **** * Function Name: isr_CH1_Enable
 302:.\Generated_Source\PSoC4/isr_CH1.c **** ********************************************************************************
 303:.\Generated_Source\PSoC4/isr_CH1.c **** *
 304:.\Generated_Source\PSoC4/isr_CH1.c **** * Summary:
 305:.\Generated_Source\PSoC4/isr_CH1.c **** *   Enables the interrupt to the interrupt controller. Do not call this function
 306:.\Generated_Source\PSoC4/isr_CH1.c **** *   unless ISR_Start() has been called or the functionality of the ISR_Start() 
 307:.\Generated_Source\PSoC4/isr_CH1.c **** *   function, which sets the vector and the priority, has been called.
 308:.\Generated_Source\PSoC4/isr_CH1.c **** *
 309:.\Generated_Source\PSoC4/isr_CH1.c **** * Parameters:
 310:.\Generated_Source\PSoC4/isr_CH1.c **** *   None
 311:.\Generated_Source\PSoC4/isr_CH1.c **** *
 312:.\Generated_Source\PSoC4/isr_CH1.c **** * Return:
 313:.\Generated_Source\PSoC4/isr_CH1.c **** *   None
 314:.\Generated_Source\PSoC4/isr_CH1.c **** *
 315:.\Generated_Source\PSoC4/isr_CH1.c **** *******************************************************************************/
ARM GAS  C:\Users\ole\AppData\Local\Temp\cck8QHbQ.s 			page 13


 316:.\Generated_Source\PSoC4/isr_CH1.c **** void isr_CH1_Enable(void)
 317:.\Generated_Source\PSoC4/isr_CH1.c **** {
 369              		.loc 1 317 0
 370              		.cfi_startproc
 371 0000 80B5     		push	{r7, lr}
 372              		.cfi_def_cfa_offset 8
 373              		.cfi_offset 7, -8
 374              		.cfi_offset 14, -4
 375 0002 00AF     		add	r7, sp, #0
 376              		.cfi_def_cfa_register 7
 318:.\Generated_Source\PSoC4/isr_CH1.c ****     /* Enable the general interrupt. */
 319:.\Generated_Source\PSoC4/isr_CH1.c ****     *isr_CH1_INTC_SET_EN = isr_CH1__INTC_MASK;
 377              		.loc 1 319 0
 378 0004 024B     		ldr	r3, .L27
 379 0006 8022     		mov	r2, #128
 380 0008 1203     		lsl	r2, r2, #12
 381 000a 1A60     		str	r2, [r3]
 320:.\Generated_Source\PSoC4/isr_CH1.c **** }
 382              		.loc 1 320 0
 383 000c BD46     		mov	sp, r7
 384              		@ sp needed
 385 000e 80BD     		pop	{r7, pc}
 386              	.L28:
 387              		.align	2
 388              	.L27:
 389 0010 00E100E0 		.word	-536813312
 390              		.cfi_endproc
 391              	.LFE41:
 392              		.size	isr_CH1_Enable, .-isr_CH1_Enable
 393              		.section	.text.isr_CH1_GetState,"ax",%progbits
 394              		.align	2
 395              		.global	isr_CH1_GetState
 396              		.code	16
 397              		.thumb_func
 398              		.type	isr_CH1_GetState, %function
 399              	isr_CH1_GetState:
 400              	.LFB42:
 321:.\Generated_Source\PSoC4/isr_CH1.c **** 
 322:.\Generated_Source\PSoC4/isr_CH1.c **** 
 323:.\Generated_Source\PSoC4/isr_CH1.c **** /*******************************************************************************
 324:.\Generated_Source\PSoC4/isr_CH1.c **** * Function Name: isr_CH1_GetState
 325:.\Generated_Source\PSoC4/isr_CH1.c **** ********************************************************************************
 326:.\Generated_Source\PSoC4/isr_CH1.c **** *
 327:.\Generated_Source\PSoC4/isr_CH1.c **** * Summary:
 328:.\Generated_Source\PSoC4/isr_CH1.c **** *   Gets the state (enabled, disabled) of the Interrupt.
 329:.\Generated_Source\PSoC4/isr_CH1.c **** *
 330:.\Generated_Source\PSoC4/isr_CH1.c **** * Parameters:
 331:.\Generated_Source\PSoC4/isr_CH1.c **** *   None
 332:.\Generated_Source\PSoC4/isr_CH1.c **** *
 333:.\Generated_Source\PSoC4/isr_CH1.c **** * Return:
 334:.\Generated_Source\PSoC4/isr_CH1.c **** *   1 if enabled, 0 if disabled.
 335:.\Generated_Source\PSoC4/isr_CH1.c **** *
 336:.\Generated_Source\PSoC4/isr_CH1.c **** *******************************************************************************/
 337:.\Generated_Source\PSoC4/isr_CH1.c **** uint8 isr_CH1_GetState(void)
 338:.\Generated_Source\PSoC4/isr_CH1.c **** {
 401              		.loc 1 338 0
 402              		.cfi_startproc
ARM GAS  C:\Users\ole\AppData\Local\Temp\cck8QHbQ.s 			page 14


 403 0000 80B5     		push	{r7, lr}
 404              		.cfi_def_cfa_offset 8
 405              		.cfi_offset 7, -8
 406              		.cfi_offset 14, -4
 407 0002 00AF     		add	r7, sp, #0
 408              		.cfi_def_cfa_register 7
 339:.\Generated_Source\PSoC4/isr_CH1.c ****     /* Get the state of the general interrupt. */
 340:.\Generated_Source\PSoC4/isr_CH1.c ****     return ((*isr_CH1_INTC_SET_EN & (uint32)isr_CH1__INTC_MASK) != 0u) ? 1u:0u;
 409              		.loc 1 340 0
 410 0004 054B     		ldr	r3, .L33
 411 0006 1A68     		ldr	r2, [r3]
 412 0008 8023     		mov	r3, #128
 413 000a 1B03     		lsl	r3, r3, #12
 414 000c 1340     		and	r3, r2
 415 000e 01D0     		beq	.L30
 416              		.loc 1 340 0 is_stmt 0 discriminator 1
 417 0010 0123     		mov	r3, #1
 418 0012 00E0     		b	.L31
 419              	.L30:
 420              		.loc 1 340 0 discriminator 2
 421 0014 0023     		mov	r3, #0
 422              	.L31:
 341:.\Generated_Source\PSoC4/isr_CH1.c **** }
 423              		.loc 1 341 0 is_stmt 1 discriminator 3
 424 0016 181C     		mov	r0, r3
 425 0018 BD46     		mov	sp, r7
 426              		@ sp needed
 427 001a 80BD     		pop	{r7, pc}
 428              	.L34:
 429              		.align	2
 430              	.L33:
 431 001c 00E100E0 		.word	-536813312
 432              		.cfi_endproc
 433              	.LFE42:
 434              		.size	isr_CH1_GetState, .-isr_CH1_GetState
 435              		.section	.text.isr_CH1_Disable,"ax",%progbits
 436              		.align	2
 437              		.global	isr_CH1_Disable
 438              		.code	16
 439              		.thumb_func
 440              		.type	isr_CH1_Disable, %function
 441              	isr_CH1_Disable:
 442              	.LFB43:
 342:.\Generated_Source\PSoC4/isr_CH1.c **** 
 343:.\Generated_Source\PSoC4/isr_CH1.c **** 
 344:.\Generated_Source\PSoC4/isr_CH1.c **** /*******************************************************************************
 345:.\Generated_Source\PSoC4/isr_CH1.c **** * Function Name: isr_CH1_Disable
 346:.\Generated_Source\PSoC4/isr_CH1.c **** ********************************************************************************
 347:.\Generated_Source\PSoC4/isr_CH1.c **** *
 348:.\Generated_Source\PSoC4/isr_CH1.c **** * Summary:
 349:.\Generated_Source\PSoC4/isr_CH1.c **** *   Disables the Interrupt in the interrupt controller.
 350:.\Generated_Source\PSoC4/isr_CH1.c **** *
 351:.\Generated_Source\PSoC4/isr_CH1.c **** * Parameters:
 352:.\Generated_Source\PSoC4/isr_CH1.c **** *   None
 353:.\Generated_Source\PSoC4/isr_CH1.c **** *
 354:.\Generated_Source\PSoC4/isr_CH1.c **** * Return:
 355:.\Generated_Source\PSoC4/isr_CH1.c **** *   None
ARM GAS  C:\Users\ole\AppData\Local\Temp\cck8QHbQ.s 			page 15


 356:.\Generated_Source\PSoC4/isr_CH1.c **** *
 357:.\Generated_Source\PSoC4/isr_CH1.c **** *******************************************************************************/
 358:.\Generated_Source\PSoC4/isr_CH1.c **** void isr_CH1_Disable(void)
 359:.\Generated_Source\PSoC4/isr_CH1.c **** {
 443              		.loc 1 359 0
 444              		.cfi_startproc
 445 0000 80B5     		push	{r7, lr}
 446              		.cfi_def_cfa_offset 8
 447              		.cfi_offset 7, -8
 448              		.cfi_offset 14, -4
 449 0002 00AF     		add	r7, sp, #0
 450              		.cfi_def_cfa_register 7
 360:.\Generated_Source\PSoC4/isr_CH1.c ****     /* Disable the general interrupt. */
 361:.\Generated_Source\PSoC4/isr_CH1.c ****     *isr_CH1_INTC_CLR_EN = isr_CH1__INTC_MASK;
 451              		.loc 1 361 0
 452 0004 024B     		ldr	r3, .L36
 453 0006 8022     		mov	r2, #128
 454 0008 1203     		lsl	r2, r2, #12
 455 000a 1A60     		str	r2, [r3]
 362:.\Generated_Source\PSoC4/isr_CH1.c **** }
 456              		.loc 1 362 0
 457 000c BD46     		mov	sp, r7
 458              		@ sp needed
 459 000e 80BD     		pop	{r7, pc}
 460              	.L37:
 461              		.align	2
 462              	.L36:
 463 0010 80E100E0 		.word	-536813184
 464              		.cfi_endproc
 465              	.LFE43:
 466              		.size	isr_CH1_Disable, .-isr_CH1_Disable
 467              		.section	.text.isr_CH1_SetPending,"ax",%progbits
 468              		.align	2
 469              		.global	isr_CH1_SetPending
 470              		.code	16
 471              		.thumb_func
 472              		.type	isr_CH1_SetPending, %function
 473              	isr_CH1_SetPending:
 474              	.LFB44:
 363:.\Generated_Source\PSoC4/isr_CH1.c **** 
 364:.\Generated_Source\PSoC4/isr_CH1.c **** 
 365:.\Generated_Source\PSoC4/isr_CH1.c **** /*******************************************************************************
 366:.\Generated_Source\PSoC4/isr_CH1.c **** * Function Name: isr_CH1_SetPending
 367:.\Generated_Source\PSoC4/isr_CH1.c **** ********************************************************************************
 368:.\Generated_Source\PSoC4/isr_CH1.c **** *
 369:.\Generated_Source\PSoC4/isr_CH1.c **** * Summary:
 370:.\Generated_Source\PSoC4/isr_CH1.c **** *   Causes the Interrupt to enter the pending state, a software method of
 371:.\Generated_Source\PSoC4/isr_CH1.c **** *   generating the interrupt.
 372:.\Generated_Source\PSoC4/isr_CH1.c **** *
 373:.\Generated_Source\PSoC4/isr_CH1.c **** * Parameters:
 374:.\Generated_Source\PSoC4/isr_CH1.c **** *   None
 375:.\Generated_Source\PSoC4/isr_CH1.c **** *
 376:.\Generated_Source\PSoC4/isr_CH1.c **** * Return:
 377:.\Generated_Source\PSoC4/isr_CH1.c **** *   None
 378:.\Generated_Source\PSoC4/isr_CH1.c **** *
 379:.\Generated_Source\PSoC4/isr_CH1.c **** * Side Effects:
 380:.\Generated_Source\PSoC4/isr_CH1.c **** *   If interrupts are enabled and the interrupt is set up properly, the ISR is
ARM GAS  C:\Users\ole\AppData\Local\Temp\cck8QHbQ.s 			page 16


 381:.\Generated_Source\PSoC4/isr_CH1.c **** *   entered (depending on the priority of this interrupt and other pending 
 382:.\Generated_Source\PSoC4/isr_CH1.c **** *   interrupts).
 383:.\Generated_Source\PSoC4/isr_CH1.c **** *
 384:.\Generated_Source\PSoC4/isr_CH1.c **** *******************************************************************************/
 385:.\Generated_Source\PSoC4/isr_CH1.c **** void isr_CH1_SetPending(void)
 386:.\Generated_Source\PSoC4/isr_CH1.c **** {
 475              		.loc 1 386 0
 476              		.cfi_startproc
 477 0000 80B5     		push	{r7, lr}
 478              		.cfi_def_cfa_offset 8
 479              		.cfi_offset 7, -8
 480              		.cfi_offset 14, -4
 481 0002 00AF     		add	r7, sp, #0
 482              		.cfi_def_cfa_register 7
 387:.\Generated_Source\PSoC4/isr_CH1.c ****     *isr_CH1_INTC_SET_PD = isr_CH1__INTC_MASK;
 483              		.loc 1 387 0
 484 0004 024B     		ldr	r3, .L39
 485 0006 8022     		mov	r2, #128
 486 0008 1203     		lsl	r2, r2, #12
 487 000a 1A60     		str	r2, [r3]
 388:.\Generated_Source\PSoC4/isr_CH1.c **** }
 488              		.loc 1 388 0
 489 000c BD46     		mov	sp, r7
 490              		@ sp needed
 491 000e 80BD     		pop	{r7, pc}
 492              	.L40:
 493              		.align	2
 494              	.L39:
 495 0010 00E200E0 		.word	-536813056
 496              		.cfi_endproc
 497              	.LFE44:
 498              		.size	isr_CH1_SetPending, .-isr_CH1_SetPending
 499              		.section	.text.isr_CH1_ClearPending,"ax",%progbits
 500              		.align	2
 501              		.global	isr_CH1_ClearPending
 502              		.code	16
 503              		.thumb_func
 504              		.type	isr_CH1_ClearPending, %function
 505              	isr_CH1_ClearPending:
 506              	.LFB45:
 389:.\Generated_Source\PSoC4/isr_CH1.c **** 
 390:.\Generated_Source\PSoC4/isr_CH1.c **** 
 391:.\Generated_Source\PSoC4/isr_CH1.c **** /*******************************************************************************
 392:.\Generated_Source\PSoC4/isr_CH1.c **** * Function Name: isr_CH1_ClearPending
 393:.\Generated_Source\PSoC4/isr_CH1.c **** ********************************************************************************
 394:.\Generated_Source\PSoC4/isr_CH1.c **** *
 395:.\Generated_Source\PSoC4/isr_CH1.c **** * Summary:
 396:.\Generated_Source\PSoC4/isr_CH1.c **** *   Clears a pending interrupt in the interrupt controller.
 397:.\Generated_Source\PSoC4/isr_CH1.c **** *
 398:.\Generated_Source\PSoC4/isr_CH1.c **** *   Note Some interrupt sources are clear-on-read and require the block 
 399:.\Generated_Source\PSoC4/isr_CH1.c **** *   interrupt/status register to be read/cleared with the appropriate block API 
 400:.\Generated_Source\PSoC4/isr_CH1.c **** *   (GPIO, UART, and so on). Otherwise the ISR will continue to remain in 
 401:.\Generated_Source\PSoC4/isr_CH1.c **** *   pending state even though the interrupt itself is cleared using this API.
 402:.\Generated_Source\PSoC4/isr_CH1.c **** *
 403:.\Generated_Source\PSoC4/isr_CH1.c **** * Parameters:
 404:.\Generated_Source\PSoC4/isr_CH1.c **** *   None
 405:.\Generated_Source\PSoC4/isr_CH1.c **** *
ARM GAS  C:\Users\ole\AppData\Local\Temp\cck8QHbQ.s 			page 17


 406:.\Generated_Source\PSoC4/isr_CH1.c **** * Return:
 407:.\Generated_Source\PSoC4/isr_CH1.c **** *   None
 408:.\Generated_Source\PSoC4/isr_CH1.c **** *
 409:.\Generated_Source\PSoC4/isr_CH1.c **** *******************************************************************************/
 410:.\Generated_Source\PSoC4/isr_CH1.c **** void isr_CH1_ClearPending(void)
 411:.\Generated_Source\PSoC4/isr_CH1.c **** {
 507              		.loc 1 411 0
 508              		.cfi_startproc
 509 0000 80B5     		push	{r7, lr}
 510              		.cfi_def_cfa_offset 8
 511              		.cfi_offset 7, -8
 512              		.cfi_offset 14, -4
 513 0002 00AF     		add	r7, sp, #0
 514              		.cfi_def_cfa_register 7
 412:.\Generated_Source\PSoC4/isr_CH1.c ****     *isr_CH1_INTC_CLR_PD = isr_CH1__INTC_MASK;
 515              		.loc 1 412 0
 516 0004 024B     		ldr	r3, .L42
 517 0006 8022     		mov	r2, #128
 518 0008 1203     		lsl	r2, r2, #12
 519 000a 1A60     		str	r2, [r3]
 413:.\Generated_Source\PSoC4/isr_CH1.c **** }
 520              		.loc 1 413 0
 521 000c BD46     		mov	sp, r7
 522              		@ sp needed
 523 000e 80BD     		pop	{r7, pc}
 524              	.L43:
 525              		.align	2
 526              	.L42:
 527 0010 80E200E0 		.word	-536812928
 528              		.cfi_endproc
 529              	.LFE45:
 530              		.size	isr_CH1_ClearPending, .-isr_CH1_ClearPending
 531              		.text
 532              	.Letext0:
 533              		.file 2 ".\\Generated_Source\\PSoC4/cytypes.h"