ARM GAS  C:\Users\ole\AppData\Local\Temp\ccULOD4p.s 			page 1


   1              		.cpu cortex-m0
   2              		.fpu softvfp
   3              		.eabi_attribute 20, 1
   4              		.eabi_attribute 21, 1
   5              		.eabi_attribute 23, 3
   6              		.eabi_attribute 24, 1
   7              		.eabi_attribute 25, 1
   8              		.eabi_attribute 26, 1
   9              		.eabi_attribute 30, 6
  10              		.eabi_attribute 34, 0
  11              		.eabi_attribute 18, 4
  12              		.code	16
  13              		.file	"main.c"
  14              		.text
  15              	.Ltext0:
  16              		.cfi_sections	.debug_frame
  17              		.global	chanel_value
  18              		.data
  19              		.align	2
  20              		.type	chanel_value, %object
  21              		.size	chanel_value, 4
  22              	chanel_value:
  23 0000 DC05     		.short	1500
  24 0002 DC05     		.short	1500
  25              		.section	.text.run_motor,"ax",%progbits
  26              		.align	2
  27              		.global	run_motor
  28              		.code	16
  29              		.thumb_func
  30              		.type	run_motor, %function
  31              	run_motor:
  32              	.LFB33:
  33              		.file 1 ".\\main.c"
   1:.\main.c      **** /* ========================================
   2:.\main.c      ****  *
   3:.\main.c      ****  * Copyright YOUR COMPANY, THE YEAR
   4:.\main.c      ****  * All Rights Reserved
   5:.\main.c      ****  * UNPUBLISHED, LICENSED SOFTWARE.
   6:.\main.c      ****  *
   7:.\main.c      ****  * CONFIDENTIAL AND PROPRIETARY INFORMATION
   8:.\main.c      ****  * WHICH IS THE PROPERTY OF your company.
   9:.\main.c      ****  *
  10:.\main.c      ****  * ========================================
  11:.\main.c      **** */
  12:.\main.c      **** #include <project.h>
  13:.\main.c      **** #include <stdio.h> 
  14:.\main.c      **** 
  15:.\main.c      **** enum dir {forward = 0, backward};
  16:.\main.c      **** enum mot {left = 0, right};
  17:.\main.c      **** enum index {one = 0, two};
  18:.\main.c      **** 
  19:.\main.c      **** uint16 chanel_value[2] = {1500, 1500};
  20:.\main.c      **** 
  21:.\main.c      **** 
  22:.\main.c      **** void run_motor(uint8 motor, uint8 input_value,  uint8 direction)
  23:.\main.c      **** {
  34              		.loc 1 23 0
ARM GAS  C:\Users\ole\AppData\Local\Temp\ccULOD4p.s 			page 2


  35              		.cfi_startproc
  36 0000 80B5     		push	{r7, lr}
  37              		.cfi_def_cfa_offset 8
  38              		.cfi_offset 7, -8
  39              		.cfi_offset 14, -4
  40 0002 82B0     		sub	sp, sp, #8
  41              		.cfi_def_cfa_offset 16
  42 0004 00AF     		add	r7, sp, #0
  43              		.cfi_def_cfa_register 7
  44 0006 FB1D     		add	r3, r7, #7
  45 0008 1870     		strb	r0, [r3]
  46 000a BB1D     		add	r3, r7, #6
  47 000c 1970     		strb	r1, [r3]
  48 000e 7B1D     		add	r3, r7, #5
  49 0010 1A70     		strb	r2, [r3]
  24:.\main.c      ****     if (motor == left)
  50              		.loc 1 24 0
  51 0012 FB1D     		add	r3, r7, #7
  52 0014 1B78     		ldrb	r3, [r3]
  53 0016 002B     		cmp	r3, #0
  54 0018 1FD1     		bne	.L2
  25:.\main.c      ****     {
  26:.\main.c      ****         if (direction == forward)
  55              		.loc 1 26 0
  56 001a 7B1D     		add	r3, r7, #5
  57 001c 1B78     		ldrb	r3, [r3]
  58 001e 002B     		cmp	r3, #0
  59 0020 0BD1     		bne	.L3
  27:.\main.c      ****         {
  28:.\main.c      ****             Pin_1_0_Write(0xFF);
  60              		.loc 1 28 0
  61 0022 FF20     		mov	r0, #255
  62 0024 FFF7FEFF 		bl	Pin_1_0_Write
  29:.\main.c      ****             Pin_1_1_Write(0x00);
  63              		.loc 1 29 0
  64 0028 0020     		mov	r0, #0
  65 002a FFF7FEFF 		bl	Pin_1_1_Write
  30:.\main.c      ****             PWM_1_WriteCompare(input_value);
  66              		.loc 1 30 0
  67 002e BB1D     		add	r3, r7, #6
  68 0030 1B78     		ldrb	r3, [r3]
  69 0032 181C     		mov	r0, r3
  70 0034 FFF7FEFF 		bl	PWM_1_WriteCompare
  71 0038 32E0     		b	.L1
  72              	.L3:
  31:.\main.c      **** 
  32:.\main.c      ****         }
  33:.\main.c      ****         else if (direction == backward)
  73              		.loc 1 33 0
  74 003a 7B1D     		add	r3, r7, #5
  75 003c 1B78     		ldrb	r3, [r3]
  76 003e 012B     		cmp	r3, #1
  77 0040 2ED1     		bne	.L1
  34:.\main.c      ****         {
  35:.\main.c      ****             Pin_1_0_Write(0x00);
  78              		.loc 1 35 0
  79 0042 0020     		mov	r0, #0
ARM GAS  C:\Users\ole\AppData\Local\Temp\ccULOD4p.s 			page 3


  80 0044 FFF7FEFF 		bl	Pin_1_0_Write
  36:.\main.c      ****             Pin_1_1_Write(0xFF);
  81              		.loc 1 36 0
  82 0048 FF20     		mov	r0, #255
  83 004a FFF7FEFF 		bl	Pin_1_1_Write
  37:.\main.c      ****             PWM_1_WriteCompare(input_value);
  84              		.loc 1 37 0
  85 004e BB1D     		add	r3, r7, #6
  86 0050 1B78     		ldrb	r3, [r3]
  87 0052 181C     		mov	r0, r3
  88 0054 FFF7FEFF 		bl	PWM_1_WriteCompare
  89 0058 22E0     		b	.L1
  90              	.L2:
  38:.\main.c      ****         }
  39:.\main.c      ****     }
  40:.\main.c      ****     else if (motor == right)
  91              		.loc 1 40 0
  92 005a FB1D     		add	r3, r7, #7
  93 005c 1B78     		ldrb	r3, [r3]
  94 005e 012B     		cmp	r3, #1
  95 0060 1ED1     		bne	.L1
  41:.\main.c      ****     {
  42:.\main.c      ****         if (direction == forward)
  96              		.loc 1 42 0
  97 0062 7B1D     		add	r3, r7, #5
  98 0064 1B78     		ldrb	r3, [r3]
  99 0066 002B     		cmp	r3, #0
 100 0068 0BD1     		bne	.L6
  43:.\main.c      ****         {
  44:.\main.c      ****             Pin_0_6_Write(0xFF);
 101              		.loc 1 44 0
 102 006a FF20     		mov	r0, #255
 103 006c FFF7FEFF 		bl	Pin_0_6_Write
  45:.\main.c      ****             Pin_0_5_Write(0x00);
 104              		.loc 1 45 0
 105 0070 0020     		mov	r0, #0
 106 0072 FFF7FEFF 		bl	Pin_0_5_Write
  46:.\main.c      ****             PWM_2_WriteCompare(input_value);
 107              		.loc 1 46 0
 108 0076 BB1D     		add	r3, r7, #6
 109 0078 1B78     		ldrb	r3, [r3]
 110 007a 181C     		mov	r0, r3
 111 007c FFF7FEFF 		bl	PWM_2_WriteCompare
 112 0080 0EE0     		b	.L1
 113              	.L6:
  47:.\main.c      ****         }
  48:.\main.c      ****         else if (direction == backward)
 114              		.loc 1 48 0
 115 0082 7B1D     		add	r3, r7, #5
 116 0084 1B78     		ldrb	r3, [r3]
 117 0086 012B     		cmp	r3, #1
 118 0088 0AD1     		bne	.L1
  49:.\main.c      ****         {
  50:.\main.c      ****             Pin_0_6_Write(0x00);
 119              		.loc 1 50 0
 120 008a 0020     		mov	r0, #0
 121 008c FFF7FEFF 		bl	Pin_0_6_Write
ARM GAS  C:\Users\ole\AppData\Local\Temp\ccULOD4p.s 			page 4


  51:.\main.c      ****             Pin_0_5_Write(0xFF);
 122              		.loc 1 51 0
 123 0090 FF20     		mov	r0, #255
 124 0092 FFF7FEFF 		bl	Pin_0_5_Write
  52:.\main.c      ****             PWM_2_WriteCompare(input_value);
 125              		.loc 1 52 0
 126 0096 BB1D     		add	r3, r7, #6
 127 0098 1B78     		ldrb	r3, [r3]
 128 009a 181C     		mov	r0, r3
 129 009c FFF7FEFF 		bl	PWM_2_WriteCompare
 130              	.L1:
  53:.\main.c      ****         }
  54:.\main.c      ****     }
  55:.\main.c      **** }
 131              		.loc 1 55 0
 132 00a0 BD46     		mov	sp, r7
 133 00a2 02B0     		add	sp, sp, #8
 134              		@ sp needed
 135 00a4 80BD     		pop	{r7, pc}
 136              		.cfi_endproc
 137              	.LFE33:
 138              		.size	run_motor, .-run_motor
 139 00a6 C046     		.section	.text.main,"ax",%progbits
 140              		.align	2
 141              		.global	main
 142              		.code	16
 143              		.thumb_func
 144              		.type	main, %function
 145              	main:
 146              	.LFB34:
  56:.\main.c      **** 
  57:.\main.c      **** 
  58:.\main.c      **** 
  59:.\main.c      **** 
  60:.\main.c      **** int main()
  61:.\main.c      **** {
 147              		.loc 1 61 0
 148              		.cfi_startproc
 149 0000 80B5     		push	{r7, lr}
 150              		.cfi_def_cfa_offset 8
 151              		.cfi_offset 7, -8
 152              		.cfi_offset 14, -4
 153 0002 82B0     		sub	sp, sp, #8
 154              		.cfi_def_cfa_offset 16
 155 0004 00AF     		add	r7, sp, #0
 156              		.cfi_def_cfa_register 7
  62:.\main.c      ****     /* Place your initialization/startup code here (e.g. MyInst_Start()) */
  63:.\main.c      ****     //uint8 uart_rx;
  64:.\main.c      ****     uint8 motor_value;
  65:.\main.c      ****     //char8 buffer[15];
  66:.\main.c      **** 
  67:.\main.c      ****     CyGlobalIntEnable;
 157              		.loc 1 67 0
 158              	@ 67 ".\main.c" 1
 159 0006 62B6     		CPSIE   i
 160              	@ 0 "" 2
  68:.\main.c      ****     PWM_1_Start();
ARM GAS  C:\Users\ole\AppData\Local\Temp\ccULOD4p.s 			page 5


 161              		.loc 1 68 0
 162              		.code	16
 163 0008 FFF7FEFF 		bl	PWM_1_Start
  69:.\main.c      ****     PWM_2_Start();
 164              		.loc 1 69 0
 165 000c FFF7FEFF 		bl	PWM_2_Start
  70:.\main.c      ****     UART_1_Start();
 166              		.loc 1 70 0
 167 0010 FFF7FEFF 		bl	UART_1_Start
  71:.\main.c      ****     Timer_CH1_Start();
 168              		.loc 1 71 0
 169 0014 FFF7FEFF 		bl	Timer_CH1_Start
  72:.\main.c      ****     Timer_CH2_Start();
 170              		.loc 1 72 0
 171 0018 FFF7FEFF 		bl	Timer_CH2_Start
  73:.\main.c      ****     isr_CH1_Start();
 172              		.loc 1 73 0
 173 001c FFF7FEFF 		bl	isr_CH1_Start
  74:.\main.c      ****     isr_CH2_Start();
 174              		.loc 1 74 0
 175 0020 FFF7FEFF 		bl	isr_CH2_Start
 176              	.L19:
  75:.\main.c      ****     
  76:.\main.c      ****     for(;;)
  77:.\main.c      ****     {
  78:.\main.c      ****         
  79:.\main.c      ****         /* Place your application code here. */
  80:.\main.c      ****                 
  81:.\main.c      ****         //LEFT MOTOR --- CH1
  82:.\main.c      ****         if (chanel_value[one] <1490 && chanel_value[one] >1000)
 177              		.loc 1 82 0
 178 0024 464B     		ldr	r3, .L20
 179 0026 1A88     		ldrh	r2, [r3]
 180 0028 464B     		ldr	r3, .L20+4
 181 002a 9A42     		cmp	r2, r3
 182 002c 17D8     		bhi	.L8
 183              		.loc 1 82 0 is_stmt 0 discriminator 1
 184 002e 444B     		ldr	r3, .L20
 185 0030 1A88     		ldrh	r2, [r3]
 186 0032 FA23     		mov	r3, #250
 187 0034 9B00     		lsl	r3, r3, #2
 188 0036 9A42     		cmp	r2, r3
 189 0038 11D9     		bls	.L8
  83:.\main.c      ****         {
  84:.\main.c      ****             motor_value = (1500 - chanel_value[one]) / 2; 
 190              		.loc 1 84 0 is_stmt 1
 191 003a 414B     		ldr	r3, .L20
 192 003c 1B88     		ldrh	r3, [r3]
 193 003e 424A     		ldr	r2, .L20+8
 194 0040 D31A     		sub	r3, r2, r3
 195 0042 00D5     		bpl	.L9
 196 0044 0133     		add	r3, r3, #1
 197              	.L9:
 198 0046 5B10     		asr	r3, r3, #1
 199 0048 1A1C     		mov	r2, r3
 200 004a FB1D     		add	r3, r7, #7
 201 004c 1A70     		strb	r2, [r3]
ARM GAS  C:\Users\ole\AppData\Local\Temp\ccULOD4p.s 			page 6


  85:.\main.c      ****             run_motor(left, motor_value, backward);
 202              		.loc 1 85 0
 203 004e FB1D     		add	r3, r7, #7
 204 0050 1B78     		ldrb	r3, [r3]
 205 0052 0020     		mov	r0, #0
 206 0054 191C     		mov	r1, r3
 207 0056 0122     		mov	r2, #1
 208 0058 FFF7FEFF 		bl	run_motor
 209 005c 21E0     		b	.L10
 210              	.L8:
  86:.\main.c      ****             //sprintf(buffer,"CH1 backward %d ", motor_value);
  87:.\main.c      ****             //UART_1_UartPutString(buffer);
  88:.\main.c      ****         }
  89:.\main.c      ****         else if (chanel_value[one] >1510 && chanel_value[one] <2000)
 211              		.loc 1 89 0
 212 005e 384B     		ldr	r3, .L20
 213 0060 1A88     		ldrh	r2, [r3]
 214 0062 3A4B     		ldr	r3, .L20+12
 215 0064 9A42     		cmp	r2, r3
 216 0066 17D9     		bls	.L11
 217              		.loc 1 89 0 is_stmt 0 discriminator 1
 218 0068 354B     		ldr	r3, .L20
 219 006a 1A88     		ldrh	r2, [r3]
 220 006c 384B     		ldr	r3, .L20+16
 221 006e 9A42     		cmp	r2, r3
 222 0070 12D8     		bhi	.L11
  90:.\main.c      ****         {
  91:.\main.c      ****             motor_value = (chanel_value[one] - 1500) / 2; 
 223              		.loc 1 91 0 is_stmt 1
 224 0072 334B     		ldr	r3, .L20
 225 0074 1B88     		ldrh	r3, [r3]
 226 0076 374A     		ldr	r2, .L20+20
 227 0078 9B18     		add	r3, r3, r2
 228 007a 002B     		cmp	r3, #0
 229 007c 00DA     		bge	.L12
 230 007e 0133     		add	r3, r3, #1
 231              	.L12:
 232 0080 5B10     		asr	r3, r3, #1
 233 0082 1A1C     		mov	r2, r3
 234 0084 FB1D     		add	r3, r7, #7
 235 0086 1A70     		strb	r2, [r3]
  92:.\main.c      ****             run_motor(left, motor_value, forward);
 236              		.loc 1 92 0
 237 0088 FB1D     		add	r3, r7, #7
 238 008a 1B78     		ldrb	r3, [r3]
 239 008c 0020     		mov	r0, #0
 240 008e 191C     		mov	r1, r3
 241 0090 0022     		mov	r2, #0
 242 0092 FFF7FEFF 		bl	run_motor
 243 0096 04E0     		b	.L10
 244              	.L11:
  93:.\main.c      ****             //sprintf(buffer,"CH1 forward %d ", motor_value);
  94:.\main.c      ****             //UART_1_UartPutString(buffer);
  95:.\main.c      ****         }
  96:.\main.c      ****         else
  97:.\main.c      ****         {
  98:.\main.c      ****             run_motor(left, 0, forward);
ARM GAS  C:\Users\ole\AppData\Local\Temp\ccULOD4p.s 			page 7


 245              		.loc 1 98 0
 246 0098 0020     		mov	r0, #0
 247 009a 0021     		mov	r1, #0
 248 009c 0022     		mov	r2, #0
 249 009e FFF7FEFF 		bl	run_motor
 250              	.L10:
  99:.\main.c      ****         }
 100:.\main.c      ****         
 101:.\main.c      ****         CyDelay(5);
 251              		.loc 1 101 0
 252 00a2 0520     		mov	r0, #5
 253 00a4 FFF7FEFF 		bl	CyDelay
 102:.\main.c      ****         
 103:.\main.c      ****         //RIGHT MOTOR --- CH2      
 104:.\main.c      ****         if (chanel_value[two] <1490 && chanel_value[two] >1000)
 254              		.loc 1 104 0
 255 00a8 254B     		ldr	r3, .L20
 256 00aa 5A88     		ldrh	r2, [r3, #2]
 257 00ac 254B     		ldr	r3, .L20+4
 258 00ae 9A42     		cmp	r2, r3
 259 00b0 17D8     		bhi	.L13
 260              		.loc 1 104 0 is_stmt 0 discriminator 1
 261 00b2 234B     		ldr	r3, .L20
 262 00b4 5A88     		ldrh	r2, [r3, #2]
 263 00b6 FA23     		mov	r3, #250
 264 00b8 9B00     		lsl	r3, r3, #2
 265 00ba 9A42     		cmp	r2, r3
 266 00bc 11D9     		bls	.L13
 105:.\main.c      ****         {
 106:.\main.c      ****             motor_value = (1500 - chanel_value[two]) / 2; 
 267              		.loc 1 106 0 is_stmt 1
 268 00be 204B     		ldr	r3, .L20
 269 00c0 5B88     		ldrh	r3, [r3, #2]
 270 00c2 214A     		ldr	r2, .L20+8
 271 00c4 D31A     		sub	r3, r2, r3
 272 00c6 00D5     		bpl	.L14
 273 00c8 0133     		add	r3, r3, #1
 274              	.L14:
 275 00ca 5B10     		asr	r3, r3, #1
 276 00cc 1A1C     		mov	r2, r3
 277 00ce FB1D     		add	r3, r7, #7
 278 00d0 1A70     		strb	r2, [r3]
 107:.\main.c      ****             run_motor(right, motor_value, backward);
 279              		.loc 1 107 0
 280 00d2 FB1D     		add	r3, r7, #7
 281 00d4 1B78     		ldrb	r3, [r3]
 282 00d6 0120     		mov	r0, #1
 283 00d8 191C     		mov	r1, r3
 284 00da 0122     		mov	r2, #1
 285 00dc FFF7FEFF 		bl	run_motor
 286 00e0 21E0     		b	.L15
 287              	.L13:
 108:.\main.c      ****         }
 109:.\main.c      ****         else if (chanel_value[two] >1510 && chanel_value[two] <2000)
 288              		.loc 1 109 0
 289 00e2 174B     		ldr	r3, .L20
 290 00e4 5A88     		ldrh	r2, [r3, #2]
ARM GAS  C:\Users\ole\AppData\Local\Temp\ccULOD4p.s 			page 8


 291 00e6 194B     		ldr	r3, .L20+12
 292 00e8 9A42     		cmp	r2, r3
 293 00ea 17D9     		bls	.L16
 294              		.loc 1 109 0 is_stmt 0 discriminator 1
 295 00ec 144B     		ldr	r3, .L20
 296 00ee 5A88     		ldrh	r2, [r3, #2]
 297 00f0 174B     		ldr	r3, .L20+16
 298 00f2 9A42     		cmp	r2, r3
 299 00f4 12D8     		bhi	.L16
 110:.\main.c      ****         {
 111:.\main.c      ****             motor_value = (chanel_value[two] - 1500) / 2; 
 300              		.loc 1 111 0 is_stmt 1
 301 00f6 124B     		ldr	r3, .L20
 302 00f8 5B88     		ldrh	r3, [r3, #2]
 303 00fa 164A     		ldr	r2, .L20+20
 304 00fc 9B18     		add	r3, r3, r2
 305 00fe 002B     		cmp	r3, #0
 306 0100 00DA     		bge	.L17
 307 0102 0133     		add	r3, r3, #1
 308              	.L17:
 309 0104 5B10     		asr	r3, r3, #1
 310 0106 1A1C     		mov	r2, r3
 311 0108 FB1D     		add	r3, r7, #7
 312 010a 1A70     		strb	r2, [r3]
 112:.\main.c      ****             run_motor(right, motor_value, forward);
 313              		.loc 1 112 0
 314 010c FB1D     		add	r3, r7, #7
 315 010e 1B78     		ldrb	r3, [r3]
 316 0110 0120     		mov	r0, #1
 317 0112 191C     		mov	r1, r3
 318 0114 0022     		mov	r2, #0
 319 0116 FFF7FEFF 		bl	run_motor
 320 011a 04E0     		b	.L15
 321              	.L16:
 113:.\main.c      ****         }
 114:.\main.c      ****         else
 115:.\main.c      ****         {
 116:.\main.c      ****             run_motor(right, 0, forward);
 322              		.loc 1 116 0
 323 011c 0120     		mov	r0, #1
 324 011e 0021     		mov	r1, #0
 325 0120 0022     		mov	r2, #0
 326 0122 FFF7FEFF 		bl	run_motor
 327              	.L15:
 117:.\main.c      ****         }
 118:.\main.c      ****         
 119:.\main.c      ****         CyDelay(5);
 328              		.loc 1 119 0
 329 0126 0520     		mov	r0, #5
 330 0128 FFF7FEFF 		bl	CyDelay
 120:.\main.c      ****         
 121:.\main.c      ****         if (pin_button_Read() == 0u)
 331              		.loc 1 121 0
 332 012c FFF7FEFF 		bl	pin_button_Read
 333 0130 031C     		mov	r3, r0
 334 0132 002B     		cmp	r3, #0
 335 0134 02D1     		bne	.L18
ARM GAS  C:\Users\ole\AppData\Local\Temp\ccULOD4p.s 			page 9


 122:.\main.c      ****         {
 123:.\main.c      ****             Bootloadable_1_Load();
 336              		.loc 1 123 0
 337 0136 FFF7FEFF 		bl	Bootloadable_1_Load
 124:.\main.c      ****         }
 125:.\main.c      ****     }
 338              		.loc 1 125 0
 339 013a 73E7     		b	.L19
 340              	.L18:
 341 013c 72E7     		b	.L19
 342              	.L21:
 343 013e C046     		.align	2
 344              	.L20:
 345 0140 00000000 		.word	chanel_value
 346 0144 D1050000 		.word	1489
 347 0148 DC050000 		.word	1500
 348 014c E6050000 		.word	1510
 349 0150 CF070000 		.word	1999
 350 0154 24FAFFFF 		.word	-1500
 351              		.cfi_endproc
 352              	.LFE34:
 353              		.size	main, .-main
 354              		.text
 355              	.Letext0:
 356              		.file 2 ".\\Generated_Source\\PSoC4/cytypes.h"